(dp1
S'output'
p2
S"<type 'exceptions.TypeError'> cannot concatenate 'str' and 'NoneType' objects"
p3
sS'layer'
p4
S'D:\\web2py\\applications\\BrainChaco\\views\\PreguntasController/index.html'
p5
sS'code'
p6
S'response.write(\'<!DOCTYPE html>\\n<!--[if (gt IE 9)|!(IE)]><!--> <html class="no-js" lang="\', escape=False)\nresponse.write(T.accepted_language or \'en\')\nresponse.write(\'"> <!--<![endif]-->\\n  <head>\\n    <meta charset="utf-8">\\n    <!-- www.phpied.com/conditional-comments-block-downloads/ -->\\n    <!-- Always force latest IE rendering engine\\n         (even in intranet) & Chrome Frame\\n         Remove this if you use the .htaccess -->\\n    <meta http-equiv="X-UA-Compatible" content="IE=edge\', escape=False)\nresponse.write(not request.is_local and \',chrome=1\' or \'\')\nresponse.write(\'">\\n\\n    <!--  Mobile Viewport Fix\\n          j.mp/mobileviewport & davidbcalhoun.com/2010/viewport-metatag\\n          device-width: Occupy full width of the screen in its current orientation\\n          initial-scale = 1.0 retains dimensions instead of zooming out if page height > device height\\n          user-scalable = yes allows the user to zoom in -->\\n    <meta name="viewport" content="width=device-width, initial-scale=1.0">\\n    <title>\', escape=False)\nresponse.write(response.title or request.application)\nresponse.write(\'</title>\\n    <!-- http://dev.w3.org/html5/markup/meta.name.html -->\\n    <meta name="application-name" content="\', escape=False)\nresponse.write(request.application)\nresponse.write(\'">\\n    <!-- Speaking of Google, don\\\'t forget to set your site up:\\n         http://google.com/webmasters -->\\n    <meta name="google-site-verification" content="">\\n\\n   \\n    <link rel="stylesheet" href="\', escape=False)\nresponse.write(URL(\'static\',\'css/bootstrap.min.css\'))\nresponse.write(\'"/>\\n    <link rel="stylesheet" href="\', escape=False)\nresponse.write(URL(\'static\',\'css/web2py-bootstrap3.css\'))\nresponse.write(\'"/>\\n   \\n    <link rel="stylesheet" type="text/css" href="\', escape=False)\nresponse.write(URL(\'static/css\', \'animate.css\'))\nresponse.write(\'">\\n    \\n    \\n   \\n    <link rel="shortcut icon" href="\', escape=False)\nresponse.write(URL(\'static\',\'images/favicon.ico\'))\nresponse.write(\'" type="image/x-icon">\\n    <link rel="apple-touch-icon" href="\', escape=False)\nresponse.write(URL(\'static\',\'images/favicon.png\'))\nresponse.write(\'">\\n    <!-- All JavaScript at the bottom, except for Modernizr which enables\\n         HTML5 elements & feature detects -->\\n    <script src="\', escape=False)\nresponse.write(URL(\'static\',\'js/modernizr-2.8.3.min.js\'))\nresponse.write(\'"></script>\\n\\n    <link rel="stylesheet" type="text/css" href="\', escape=False)\nresponse.write(URL(\'static/css\', \'style.css\'))\nresponse.write(\'"> \\n    <link rel="stylesheet" href="\', escape=False)\nresponse.write(URL(\'static\',\'css/es-v3-9-7.css\'))\nresponse.write(\'"/>\\n    \\n\\n    <!--[if lt IE 9]>\\n        <script src="\', escape=False)\nresponse.write(URL(\'static\',\'js/respond-1.4.2.min.js\'))\nresponse.write(\'"></script>\\n        <![endif]-->\\n    <!-- Favicons -->\\n    \', escape=False)\nresponse.write(\'<script type="text/javascript"><!--\\n    // These variables are used by the web2py_ajax_init function in web2py_ajax.js (which is loaded below).\\n    var w2p_ajax_confirm_message = "\', escape=False)\nresponse.write(T(\'Are you sure you want to delete this object?\'))\nresponse.write(\'";\\n    var w2p_ajax_disable_with_message = "\', escape=False)\nresponse.write(T(\'Working...\'))\nresponse.write(\'";\\n    var w2p_ajax_date_format = "\', escape=False)\nresponse.write(T(\'%Y-%m-%d\'))\nresponse.write(\'";\\n    var w2p_ajax_datetime_format = "\', escape=False)\nresponse.write(T(\'%Y-%m-%d %H:%M:%S\'))\nresponse.write(\'";\\n    var ajax_error_500 = \\\'\', escape=False)\nresponse.write(T.M(\'An error occured, please [[reload %s]] the page\') % URL(args=request.args, vars=request.get_vars))\nresponse.write("\'\\n    //--></script>\\n", escape=False)\nresponse.files.insert(0,URL(\'static\',\'js/jquery.js\'))\nresponse.files.insert(1,URL(\'static\',\'css/calendar.css\'))\nresponse.files.insert(2,URL(\'static\',\'js/calendar.js\'))\nresponse.files.insert(3,URL(\'static\',\'js/web2py.js\'))\nresponse.include_meta()\nresponse.include_files()\nresponse.write(\'\\n\', escape=False)\nresponse.write(\' <!-- this includes jquery.js, calendar.js/.css and web2py.js -->\\n    \', escape=False)\nresponse.write(\'\\n    \', escape=False)\n# using sidebars need to know what sidebar you want to use\nmc0 = \'col-md-12\'\nmc1 = \'col-md-9\'\nmc2 = \'col-md-6\'\nleft_sidebar_enabled = globals().get(\'left_sidebar_enabled\', False)\nright_sidebar_enabled = globals().get(\'right_sidebar_enabled\', False)\nmiddle_column = {0: mc0, 1: mc1, 2: mc2}[\n(left_sidebar_enabled and 1 or 0)+(right_sidebar_enabled and 1 or 0)]\nresponse.write(\'\\n  </head>\\n  <body>\\n    <!--[if lt IE 8]><p class="browserupgrade">You are using an <strong>outdated</strong> browser. Please <a href="http://browsehappy.com/">upgrade your browser</a> to improve your experience.</p><![endif]-->\\n    <div class="w2p_flash alert alert-dismissable">\', escape=False)\nresponse.write(response.flash or \'\')\nresponse.write(\'</div>\\n    <!-- Navbar ======================================= -->\\n    \\n    <!--<nav class="navbar navbar-default navbar-fixed-top" role="navigation">\\n      <div class="container-fluid">\\n        <div class="navbar-header">\\n          <button type="button" class="navbar-toggle" data-toggle="collapse" data-target=".navbar-collapse">\\n            <span class="sr-only">Toggle navigation</span>\\n            <span class="icon-bar"></span>\\n            <span class="icon-bar"></span>\\n            <span class="icon-bar"></span>\\n          </button>\\n          \', escape=False)\nresponse.write(response.logo or \'\')\nresponse.write(\'\\n        </div>\\n        <div class="collapse navbar-collapse navbar-ex1-collapse">\\n          <ul class="nav navbar-nav navbar-right">\\n            \', escape=False)\nresponse.write(\'auth\' in globals() and auth.navbar(\'Welcome\',mode=\'dropdown\') or \'\')\nresponse.write(\'\\n          </ul>\\n          \', escape=False)\nif response.menu:\n    response.write(\'\\n          \', escape=False)\n    response.write(MENU(response.menu, _class=\'nav navbar-nav\',li_class=\'dropdown\',ul_class=\'dropdown-menu\'))\n    response.write(\'\\n          \', escape=False)\n    pass\nresponse.write(\'\\n        </div>\\n      </div>\\n    </nav>-->\\n\\n    <!-- Masthead ===================================== -->    \\n    \', escape=False)\nresponse.write(\'\\n    \', escape=False)\nresponse.write(\'\\n    <!-- Main ========================================= -->\\n    <!-- Begin page content -->\\n    \\n    <div class="container-fluid">\\n      <div class="ocultar-menu" id="side-menu" style="right: -28.8em;">\\n    <a class="side-menu-tab" id="fake-tab"></a>\\n    \\n    <a class="side-menu-tab" id="main-tab">\\n      <div class="vertical-text"><span>Men\\xc3\\xba</span></div>\\n    </a>\\n    \\n\\n      <div id="cerrar" class="return"><a></a></div></a>\\n\\n    <div id="inner-side-menu">\\n        \\n        <div class="side-menu-page">\\n        <div id="side-menu-title-box">\\n          <div id="side-hover-container">\\n            <canvas width="131" height="96" class="hover-icon" style="opacity: 1;"></canvas>\\n            <canvas width="131" height="96" class="hover-icon" style="opacity: 0.01;"></canvas>\\n            <canvas width="131" height="96" class="hover-icon" style="opacity: 0.01;"></canvas>\\n            <canvas width="131" height="96" class="hover-icon" style="opacity: 0.01;"></canvas>\\n            <canvas width="131" height="96" class="hover-icon" style="opacity: 0.01;"></canvas>\\n          </div>\\n          <img class="side-menu-title-line" src="../static/images/line-red.png">\\n        </div>\\n        \\n        <div class="side-menu-button" id="sm-main-menu-button">\\n          <div class="button-default">\\n            <canvas width="305" height="83" style="width: 100%; height: 100%;"></canvas>\\n            <div class="side-menu-button-text">Men\\xc3\\xba principal</div>\\n          </div>\\n\\n          <div class="button-hover">\\n            <canvas width="305" height="83" style="width: 100%; height: 100%;"></canvas>\\n            <div class="side-menu-button-text"><a href="\', escape=False)\nresponse.write(URL("HomeController","index"))\nresponse.write(\'">Men\\xc3\\xba principal</a></div>\\n          </div>\\n        </div>\\n\\n        <div class="side-menu-button" id="sm-new-game-button">\\n          <div class="button-default">\\n            <canvas width="305" height="83" style="width: 100%; height: 100%;"></canvas>\\n            <div class="side-menu-button-text">Nueva partida</div>\\n          </div>\\n          <div class="button-hover">\\n            <canvas width="305" height="83" style="width: 100%; height: 100%;"></canvas>\\n            <div class="side-menu-button-text">Nueva partida</div>\\n          </div>\\n        </div>\\n        \\n        <div class="side-menu-button" id="sm-how-to-play-button">\\n          <div class="button-default">\\n            <canvas width="305" height="83" style="width: 100%; height: 100%;"></canvas>\\n            <div class="side-menu-button-text">Reglas del juego</div>\\n          </div>\\n          <div class="button-hover">\\n            <canvas width="305" height="83" style="width: 100%; height: 100%;"></canvas>\\n            <div class="side-menu-button-text">Reglas del juego</div>\\n          </div>\\n        </div>\\n\\n        <div class="side-menu-button" id="sm-scoreboard-button">\\n          <div class="button-default">\\n            <canvas width="305" height="83" style="width: 100%; height: 100%;"></canvas>\\n            <div class="side-menu-button-text">Resultados</div>\\n          </div>\\n          \\n        </div>\\n\\n      </div>\\n    </div>\\n    </div>\\n    <!--  \', escape=False)\nif left_sidebar_enabled:\n    response.write(\'\\n        <div class="col-md-3 left-sidebar">\\n            \', escape=False)\n    response.write(\'\\n            <h3>Left Sidebar</h3>\\n            <p></p>\\n            \', escape=False)\n    response.write(\'\\n        </div>\\n      \', escape=False)\n    pass\nresponse.write(\'-->\\n\\n     \\n        \', escape=False)\nresponse.write(\'\\n        \', escape=False)\nresponse.write(\'\\r\\n</script>\\r\\n\\r\\n<body id="fondo-preguntas">\\r\\n\\t\\r\\n\\t<div id="puntaje" >Puntuacion | 0 <br>\\r\\n\\t\\t<label id="LblnomJugador"></label>\\r\\n\\t</div>\\r\\n    \\r\\n\\t<!--<center>\\r\\n\\t <img id="titulo" class="animated flip img-responsive" src="\', escape=False)\nresponse.write(URL(\'static/images\',\'logo-brain.png\'))\nresponse.write(\'">\\r\\n\\t</center>-->\\r\\n\\t\\r\\n\\t\\r\\n\\r\\n    \\r\\n</div>\\r\\n\\r\\n\\r\\n  <div class="row " id="cuadro-preguntas">\\r\\n    <div class="col-md-8 col-md-offset-2" ">\\r\\n      \\r\\n      <div class="col-md-4">\\r\\n        <a href="\', escape=False)\nresponse.write(URL(\'PreguntasController\',\'seleccionar_pregunta/1\'))\nresponse.write(\'"><img class="img-circle" src="\', escape=False)\nresponse.write(URL(\'static/images\',\'geografia.png\'))\nresponse.write(\'" alt="GEOGRAFIA"></a>\\r\\n      </div>\\r\\n      <div class="col-md-4">\\r\\n       <a href="\', escape=False)\nresponse.write(URL(\'PreguntasController\',\'seleccionar_pregunta/2\'))\nresponse.write(\'"> <img class="img-circle" width="250" src="\', escape=False)\nresponse.write(URL(\'static/images\',\'historia.png\'))\nresponse.write(\'" alt="HISTORIA"></a>\\r\\n      </div>\\r\\n      <div class="col-md-4">\\r\\n        <a href="\', escape=False)\nresponse.write(URL(\'PreguntasController\',\'seleccionar_pregunta/3\'))\nresponse.write(\'"><img class="img-circle" src="\', escape=False)\nresponse.write(URL(\'static/images\',\'escultura.png\'))\nresponse.write(\'" alt="ESCULTURA"></a>\\r\\n      </div>\\r\\n    </div>\\r\\n    <div class="row">\\r\\n        <div class="col-md-7 col-md-offset-3">\\r\\n           <h1>\', escape=False)\nfor pregunta in preguntas:\n    response.write(\'\\r\\n              \', escape=False)\n    response.write(pregunta[1])\n    response.write(\'\\r\\n              \', escape=False)\n    pass\nresponse.write(\'\\r\\n          </h1>\\r\\n          <h3>\\r\\n             <form action="\', escape=False)\nresponse.write(URL(\'PreguntasController\',\'verificar_respuesta\'))\nresponse.write(\'">\\r\\n              <div class="radio">\\r\\n                \', escape=False)\nfor respuestas in respuesta:\n    response.write(\'\\r\\n                <input type="radio" value="\', escape=False)\n    response.write(respuestas[0])\n    response.write(\'" name="respuesta">\', escape=False)\n    response.write(respuestas[0])\n    response.write(\'<br>\\r\\n                \', escape=False)\n    pass\nresponse.write(\'\\r\\n              </div>\\r\\n              <button class="btn btn-primary">ENVIAR</button>\\r\\n            </form>\\r\\n          </h3>\\r\\n        </div>\\r\\n    </div>\\r\\n      \\r\\n\\r\\n   <h1>\', escape=False)\nresponse.write(message)\nresponse.write(\'</h1>\\r\\n\\r\\n\\r\\n      <!--MODAL PARA INGRESAR EL NOMBRE-->\\r\\n      <div class="modal fade" id="mostrarmodal" tabindex="-1" role="dialog" aria-labelledby="basicModal" aria-hidden="true">\\r\\n        <div class="modal-dialog">\\r\\n          <div class="modal-content">\\r\\n             <div class="modal-header">\\r\\n                <h3>Ingrese Nombre</h3>\\r\\n             </div>\\r\\n             <div class="modal-body">\\r\\n                <input type="text" class="form-control" id="nomJugador">  \\r\\n                \\r\\n              </div>\\r\\n             <div class="modal-footer">\\r\\n              <button href="#" data-dismiss="modal" class="btn btn-info" id="btn-nom">Aceptar</button>\\r\\n             </div>\\r\\n          </div>\\r\\n        </div>\\r\\n      </div>\\r\\n</body>\\r\\n  \\r\\n      \\r\\n  \', escape=False)\nresponse.write(\'\\n        \', escape=False)\nresponse.write(\'\\n     \\n\\n      <!--\', escape=False)\nif right_sidebar_enabled:\n    response.write(\'\\n        <div class="col-md-3">\\n            \', escape=False)\n    response.write(\'\\n            <h3>Right Sidebar</h3>\\n            <p></p>\\n            \', escape=False)\n    response.write(\'\\n        </div>\\n      \', escape=False)\n    pass\nresponse.write(\'-->\\n\\n  </div>  \\n\\n    \', escape=False)\nresponse.write(\' <!-- this is default footer -->      \\n   \\n   <!-- <footer class="footer">\\n      <div class="container-fluid">\\n        <div class="copyright pull-left">\', escape=False)\nresponse.write(T(\'Copyright\'))\nresponse.write(\' &#169; \', escape=False)\nresponse.write(request.now.year)\nresponse.write(\'</div>\\n          <div id="poweredBy" class="pull-right">\\n            \', escape=False)\nresponse.write(T(\'Powered by\'))\nresponse.write(\'\\n            <a href="http://www.web2py.com/">web2py</a>\\n          </div>\\n      </div>\\n    </footer>-->\\n    \', escape=False)\nresponse.write(\'\\n    <!-- The javascript =============================== -->\\n    <script src="\', escape=False)\nresponse.write(URL(\'static\',\'js/bootstrap.min.js\'))\nresponse.write(\'"></script>\\n    <script src="\', escape=False)\nresponse.write(URL(\'static\',\'js/web2py-bootstrap3.js\'))\nresponse.write(\'"></script>\\n    <script src="\', escape=False)\nresponse.write(URL(\'static\',\'js/functions.js\'))\nresponse.write(\'"></script>\\n    \', escape=False)\nresponse.write(\'\\n    \', escape=False)\nif response.google_analytics_id:\n    response.write(\'\\n    <!-- Analytics ==================================== -->\\n    <script src="\', escape=False)\n    response.write(URL(\'static\',\'js/analytics.min.js\'))\n    response.write(\'"></script>\\n\\n    <script type="text/javascript">\\n      analytics.initialize({\\n      \\\'Google Analytics\\\':{trackingId:\\\'\', escape=False)\n    response.write(response.google_analytics_id)\n    response.write("\'}\\n      });\\n      \\n    </script>\\n    \\n    ", escape=False)\n    pass\nresponse.write(\'\\n    <!-- Share ============================y============ -->\\n    <script src="\', escape=False)\nresponse.write(URL(\'static\',\'js/share.js\',vars=dict(static=URL(\'static\',\'images\'))))\nresponse.write(\'"></script>\\n  </body>\\n</html>\\n\', escape=False)'
p7
sS'snapshot'
p8
(dp9
S'exception'
p10
(dp11
S'__hash__'
p12
S"<method-wrapper '__hash__' of exceptions.TypeError object>"
p13
sS'__setattr__'
p14
S"<method-wrapper '__setattr__' of exceptions.TypeError object>"
p15
sS'__reduce_ex__'
p16
S'<built-in method __reduce_ex__ of exceptions.TypeError object>'
p17
sS'__getslice__'
p18
S"<method-wrapper '__getslice__' of exceptions.TypeError object>"
p19
sS'__getitem__'
p20
S"<method-wrapper '__getitem__' of exceptions.TypeError object>"
p21
sS'__setstate__'
p22
S'<built-in method __setstate__ of exceptions.TypeError object>'
p23
sS'__reduce__'
p24
S'<built-in method __reduce__ of exceptions.TypeError object>'
p25
sS'__str__'
p26
S"<method-wrapper '__str__' of exceptions.TypeError object>"
p27
sS'__format__'
p28
S'<built-in method __format__ of exceptions.TypeError object>'
p29
sS'__getattribute__'
p30
S"<method-wrapper '__getattribute__' of exceptions.TypeError object>"
p31
sS'__class__'
p32
S"<type 'exceptions.TypeError'>"
p33
sS'__unicode__'
p34
S'<built-in method __unicode__ of exceptions.TypeError object>'
p35
sS'__delattr__'
p36
S"<method-wrapper '__delattr__' of exceptions.TypeError object>"
p37
sS'__subclasshook__'
p38
S'<built-in method __subclasshook__ of type object>'
p39
sS'__repr__'
p40
S"<method-wrapper '__repr__' of exceptions.TypeError object>"
p41
sS'args'
p42
S'("cannot concatenate \'str\' and \'NoneType\' objects",)'
p43
sS'__dict__'
p44
S'{}'
p45
sS'__sizeof__'
p46
S'<built-in method __sizeof__ of exceptions.TypeError object>'
p47
sS'__doc__'
p48
S"'Inappropriate argument type.'"
p49
sS'__init__'
p50
S"<method-wrapper '__init__' of exceptions.TypeError object>"
p51
sS'__new__'
p52
S'<built-in method __new__ of type object>'
p53
ssS'evalue'
p54
S"cannot concatenate 'str' and 'NoneType' objects"
p55
sS'request'
p56
cgluon.html
XML_unpickle
p57
(S's\xfa[\x00\x00<div><table><tr><td style="font-weight:bold;vertical-align:top;">ajax</td><td style="vertical-align:top;">:</td><td><div>False</div></td></tr><tr><td style="font-weight:bold;vertical-align:top;">application</td><td style="vertical-align:top;">:</td><td><div>BrainChaco</div></td></tr><tr><td style="font-weight:bold;vertical-align:top;">args</td><td style="vertical-align:top;">:</td><td><div><table></table></div></td></tr><tr><td style="font-weight:bold;vertical-align:top;">cid</td><td style="vertical-align:top;">:</td><td><div>None</div></td></tr><tr><td style="font-weight:bold;vertical-align:top;">client</td><td style="vertical-align:top;">:</td><td><div>127.0.0.1</div></td></tr><tr><td style="font-weight:bold;vertical-align:top;">controller</td><td style="vertical-align:top;">:</td><td><div>PreguntasController</div></td></tr><tr><td style="font-weight:bold;vertical-align:top;">cookies</td><td style="vertical-align:top;">:</td><td><div><table><tr><td style="font-weight:bold;vertical-align:top;">session_id_admin</td><td style="vertical-align:top;">:</td><td><div>127.0.0.1-80535770-a199-4d83-93c4-b31577cecf7b<table><tr><td style="font-weight:bold;vertical-align:top;">comment</td><td style="vertical-align:top;">:</td><td><div></div></td></tr><tr><td style="font-weight:bold;vertical-align:top;">domain</td><td style="vertical-align:top;">:</td><td><div></div></td></tr><tr><td style="font-weight:bold;vertical-align:top;">expires</td><td style="vertical-align:top;">:</td><td><div></div></td></tr><tr><td style="font-weight:bold;vertical-align:top;">httponly</td><td style="vertical-align:top;">:</td><td><div></div></td></tr><tr><td style="font-weight:bold;vertical-align:top;">max-age</td><td style="vertical-align:top;">:</td><td><div></div></td></tr><tr><td style="font-weight:bold;vertical-align:top;">path</td><td style="vertical-align:top;">:</td><td><div></div></td></tr><tr><td style="font-weight:bold;vertical-align:top;">secure</td><td style="vertical-align:top;">:</td><td><div></div></td></tr><tr><td style="font-weight:bold;vertical-align:top;">version</td><td style="vertical-align:top;">:</td><td><div></div></td></tr></table></div></td></tr><tr><td style="font-weight:bold;vertical-align:top;">session_id_brainchaco</td><td style="vertical-align:top;">:</td><td><div>127.0.0.1-9c83103f-3209-4c47-b2b5-656c085aef56<table><tr><td style="font-weight:bold;vertical-align:top;">comment</td><td style="vertical-align:top;">:</td><td><div></div></td></tr><tr><td style="font-weight:bold;vertical-align:top;">domain</td><td style="vertical-align:top;">:</td><td><div></div></td></tr><tr><td style="font-weight:bold;vertical-align:top;">expires</td><td style="vertical-align:top;">:</td><td><div></div></td></tr><tr><td style="font-weight:bold;vertical-align:top;">httponly</td><td style="vertical-align:top;">:</td><td><div></div></td></tr><tr><td style="font-weight:bold;vertical-align:top;">max-age</td><td style="vertical-align:top;">:</td><td><div></div></td></tr><tr><td style="font-weight:bold;vertical-align:top;">path</td><td style="vertical-align:top;">:</td><td><div></div></td></tr><tr><td style="font-weight:bold;vertical-align:top;">secure</td><td style="vertical-align:top;">:</td><td><div></div></td></tr><tr><td style="font-weight:bold;vertical-align:top;">version</td><td style="vertical-align:top;">:</td><td><div></div></td></tr></table></div></td></tr><tr><td style="font-weight:bold;vertical-align:top;">session_id_welcome</td><td style="vertical-align:top;">:</td><td><div>127.0.0.1-38b09d33-533a-47ed-be27-419c7f6e8947<table><tr><td style="font-weight:bold;vertical-align:top;">comment</td><td style="vertical-align:top;">:</td><td><div></div></td></tr><tr><td style="font-weight:bold;vertical-align:top;">domain</td><td style="vertical-align:top;">:</td><td><div></div></td></tr><tr><td style="font-weight:bold;vertical-align:top;">expires</td><td style="vertical-align:top;">:</td><td><div></div></td></tr><tr><td style="font-weight:bold;vertical-align:top;">httponly</td><td style="vertical-align:top;">:</td><td><div></div></td></tr><tr><td style="font-weight:bold;vertical-align:top;">max-age</td><td style="vertical-align:top;">:</td><td><div></div></td></tr><tr><td style="font-weight:bold;vertical-align:top;">path</td><td style="vertical-align:top;">:</td><td><div></div></td></tr><tr><td style="font-weight:bold;vertical-align:top;">secure</td><td style="vertical-align:top;">:</td><td><div></div></td></tr><tr><td style="font-weight:bold;vertical-align:top;">version</td><td style="vertical-align:top;">:</td><td><div></div></td></tr></table></div></td></tr></table></div></td></tr><tr><td style="font-weight:bold;vertical-align:top;">env</td><td style="vertical-align:top;">:</td><td><div><table><tr><td style="font-weight:bold;vertical-align:top;">HTTP_ACCEPT</td><td style="vertical-align:top;">:</td><td><div>text/html,application/xhtml+xml,application/xml;q=0.9,image/webp,*/*;q=0.8</div></td></tr><tr><td style="font-weight:bold;vertical-align:top;">HTTP_ACCEPT_ENCODING</td><td style="vertical-align:top;">:</td><td><div>gzip, deflate, sdch</div></td></tr><tr><td style="font-weight:bold;vertical-align:top;">HTTP_ACCEPT_LANGUAGE</td><td style="vertical-align:top;">:</td><td><div>es-ES,es;q=0.8</div></td></tr><tr><td style="font-weight:bold;vertical-align:top;">HTTP_CONNECTION</td><td style="vertical-align:top;">:</td><td><div>keep-alive</div></td></tr><tr><td style="font-weight:bold;vertical-align:top;">HTTP_COOKIE</td><td style="vertical-align:top;">:</td><td><div>session_id_welcome=127.0.0.1-38b09d33-533a-47ed-be27-419c7f6e8947; session_id_admin=127.0.0.1-80535770-a199-4d83-93c4-b31577cecf7b; session_id_brainchaco=127.0.0.1-9c83103f-3209-4c47-b2b5-656c085aef56</div></td></tr><tr><td style="font-weight:bold;vertical-align:top;">HTTP_HOST</td><td style="vertical-align:top;">:</td><td><div>127.0.0.1:8000</div></td></tr><tr><td style="font-weight:bold;vertical-align:top;">HTTP_REFERER</td><td style="vertical-align:top;">:</td><td><div>http://127.0.0.1:8000/BrainChaco/PreguntasController/seleccionar_pregunta/1</div></td></tr><tr><td style="font-weight:bold;vertical-align:top;">HTTP_UPGRADE_INSECURE_REQUESTS</td><td style="vertical-align:top;">:</td><td><div>1</div></td></tr><tr><td style="font-weight:bold;vertical-align:top;">HTTP_USER_AGENT</td><td style="vertical-align:top;">:</td><td><div>Mozilla/5.0 (Windows NT 6.1; WOW64) AppleWebKit/537.36 (KHTML, like Gecko) Chrome/51.0.2704.84 Safari/537.36</div></td></tr><tr><td style="font-weight:bold;vertical-align:top;">PATH_INFO</td><td style="vertical-align:top;">:</td><td><div>/BrainChaco/PreguntasController/verificar_respuesta</div></td></tr><tr><td style="font-weight:bold;vertical-align:top;">QUERY_STRING</td><td style="vertical-align:top;">:</td><td><div>respuesta=26m.</div></td></tr><tr><td style="font-weight:bold;vertical-align:top;">REMOTE_ADDR</td><td style="vertical-align:top;">:</td><td><div>127.0.0.1</div></td></tr><tr><td style="font-weight:bold;vertical-align:top;">REMOTE_PORT</td><td style="vertical-align:top;">:</td><td><div>2217</div></td></tr><tr><td style="font-weight:bold;vertical-align:top;">REQUEST_METHOD</td><td style="vertical-align:top;">:</td><td><div>GET</div></td></tr><tr><td style="font-weight:bold;vertical-align:top;">SCRIPT_NAME</td><td style="vertical-align:top;">:</td><td><div></div></td></tr><tr><td style="font-weight:bold;vertical-align:top;">SERVER_NAME</td><td style="vertical-align:top;">:</td><td><div>Notebook-PC</div></td></tr><tr><td style="font-weight:bold;vertical-align:top;">SERVER_PORT</td><td style="vertical-align:top;">:</td><td><div>8000</div></td></tr><tr><td style="font-weight:bold;vertical-align:top;">SERVER_PROTOCOL</td><td style="vertical-align:top;">:</td><td><div>HTTP/1.1</div></td></tr><tr><td style="font-weight:bold;vertical-align:top;">SERVER_SOFTWARE</td><td style="vertical-align:top;">:</td><td><div>Rocket 1.2.6</div></td></tr><tr><td style="font-weight:bold;vertical-align:top;">app_folders</td><td style="vertical-align:top;">:</td><td><div>set([&#x27;D:\\\\web2py\\\\applications\\\\admin\\\\&#x27;, &#x27;D:\\\\web2py\\\\applications\\\\welcome\\\\&#x27;, &#x27;D:\\\\web2py\\\\applications\\\\BrainChaco\\\\&#x27;])</div></td></tr><tr><td style="font-weight:bold;vertical-align:top;">applications_parent</td><td style="vertical-align:top;">:</td><td><div>D:\\web2py</div></td></tr><tr><td style="font-weight:bold;vertical-align:top;">cmd_args</td><td style="vertical-align:top;">:</td><td><div><table></table></div></td></tr><tr><td style="font-weight:bold;vertical-align:top;">cmd_options</td><td style="vertical-align:top;">:</td><td><div>&lt;Values at 0x3669f08: {&#x27;verbose&#x27;: False, &#x27;ip&#x27;: &#x27;127.0.0.1&#x27;, &#x27;debuglevel&#x27;: 30, &#x27;with_scheduler&#x27;: False, &#x27;shutdown_timeout&#x27;: 5, &#x27;taskbar&#x27;: False, &#x27;with_coverage&#x27;: False, &#x27;pid_filename&#x27;: &#x27;httpserver.pid&#x27;, &#x27;maxthreads&#x27;: None, &#x27;softcron&#x27;: False, &#x27;server_name&#x27;: &#x27;Notebook-PC&#x27;, &#x27;bpython&#x27;: False, &#x27;nogui&#x27;: False, &#x27;port&#x27;: 8000, &#x27;print_errors&#x27;: False, &#x27;extcron&#x27;: False, &#x27;runcron&#x27;: False, &#x27;run_system_tests&#x27;: False, &#x27;test&#x27;: None, &#x27;folder&#x27;: &#x27;D:\\\\web2py&#x27;, &#x27;config&#x27;: &#x27;&#x27;, &#x27;minthreads&#x27;: None, &#x27;shell&#x27;: None, &#x27;run&#x27;: &#x27;&#x27;, &#x27;log_filename&#x27;: &#x27;httpserver.log&#x27;, &#x27;profiler_dir&#x27;: None, &#x27;args&#x27;: [&#x27;&#x27;], &#x27;socket_timeout&#x27;: 5, &#x27;ssl_ca_certificate&#x27;: None, &#x27;scheduler&#x27;: None, &#x27;interfaces&#x27;: None, &#x27;ssl_private_key&#x27;: &#x27;&#x27;, &#x27;gae&#x27;: None, &#x27;password&#x27;: &#x27;******&#x27;, &#x27;request_queue_size&#x27;: 5, &#x27;ssl_certificate&#x27;: &#x27;&#x27;, &#x27;cronjob&#x27;: False, &#x27;numthreads&#x27;: None, &#x27;quiet&#x27;: False, &#x27;import_models&#x27;: False, &#x27;timeout&#x27;: 10, &#x27;plain&#x27;: False, &#x27;nobanner&#x27;: False}&gt;</div></td></tr><tr><td style="font-weight:bold;vertical-align:top;">db_sessions</td><td style="vertical-align:top;">:</td><td><div>set([])</div></td></tr><tr><td style="font-weight:bold;vertical-align:top;">debugging</td><td style="vertical-align:top;">:</td><td><div>False</div></td></tr><tr><td style="font-weight:bold;vertical-align:top;">gluon_parent</td><td style="vertical-align:top;">:</td><td><div>D:\\web2py</div></td></tr><tr><td style="font-weight:bold;vertical-align:top;">http_accept</td><td style="vertical-align:top;">:</td><td><div>text/html,application/xhtml+xml,application/xml;q=0.9,image/webp,*/*;q=0.8</div></td></tr><tr><td style="font-weight:bold;vertical-align:top;">http_accept_encoding</td><td style="vertical-align:top;">:</td><td><div>gzip, deflate, sdch</div></td></tr><tr><td style="font-weight:bold;vertical-align:top;">http_accept_language</td><td style="vertical-align:top;">:</td><td><div>es-ES,es;q=0.8</div></td></tr><tr><td style="font-weight:bold;vertical-align:top;">http_connection</td><td style="vertical-align:top;">:</td><td><div>keep-alive</div></td></tr><tr><td style="font-weight:bold;vertical-align:top;">http_cookie</td><td style="vertical-align:top;">:</td><td><div>session_id_welcome=127.0.0.1-38b09d33-533a-47ed-be27-419c7f6e8947; session_id_admin=127.0.0.1-80535770-a199-4d83-93c4-b31577cecf7b; session_id_brainchaco=127.0.0.1-9c83103f-3209-4c47-b2b5-656c085aef56</div></td></tr><tr><td style="font-weight:bold;vertical-align:top;">http_host</td><td style="vertical-align:top;">:</td><td><div>127.0.0.1:8000</div></td></tr><tr><td style="font-weight:bold;vertical-align:top;">http_referer</td><td style="vertical-align:top;">:</td><td><div>http://127.0.0.1:8000/BrainChaco/PreguntasController/seleccionar_pregunta/1</div></td></tr><tr><td style="font-weight:bold;vertical-align:top;">http_upgrade_insecure_requests</td><td style="vertical-align:top;">:</td><td><div>1</div></td></tr><tr><td style="font-weight:bold;vertical-align:top;">http_user_agent</td><td style="vertical-align:top;">:</td><td><div>Mozilla/5.0 (Windows NT 6.1; WOW64) AppleWebKit/537.36 (KHTML, like Gecko) Chrome/51.0.2704.84 Safari/537.36</div></td></tr><tr><td style="font-weight:bold;vertical-align:top;">is_jython</td><td style="vertical-align:top;">:</td><td><div>False</div></td></tr><tr><td style="font-weight:bold;vertical-align:top;">is_pypy</td><td style="vertical-align:top;">:</td><td><div>False</div></td></tr><tr><td style="font-weight:bold;vertical-align:top;">is_source</td><td style="vertical-align:top;">:</td><td><div>False</div></td></tr><tr><td style="font-weight:bold;vertical-align:top;">local_hosts</td><td style="vertical-align:top;">:</td><td><div><table><tr><td><div>Notebook-PC</div></td></tr><tr><td><div>::ffff:127.0.0.1</div></td></tr><tr><td><div>::1</div></td></tr><tr><td><div>fe80::8c8d:67ee:cd4e:f037%14</div></td></tr><tr><td><div>192.168.0.11</div></td></tr><tr><td><div>127.0.0.1</div></td></tr></table></div></td></tr><tr><td style="font-weight:bold;vertical-align:top;">path_info</td><td style="vertical-align:top;">:</td><td><div>/BrainChaco/PreguntasController/verificar_respuesta</div></td></tr><tr><td style="font-weight:bold;vertical-align:top;">query_string</td><td style="vertical-align:top;">:</td><td><div>respuesta=26m.</div></td></tr><tr><td style="font-weight:bold;vertical-align:top;">remote_addr</td><td style="vertical-align:top;">:</td><td><div>127.0.0.1</div></td></tr><tr><td style="font-weight:bold;vertical-align:top;">remote_port</td><td style="vertical-align:top;">:</td><td><div>2217</div></td></tr><tr><td style="font-weight:bold;vertical-align:top;">request_method</td><td style="vertical-align:top;">:</td><td><div>GET</div></td></tr><tr><td style="font-weight:bold;vertical-align:top;">request_uri</td><td style="vertical-align:top;">:</td><td><div>/BrainChaco/PreguntasController/verificar_respuesta?respuesta=26m.</div></td></tr><tr><td style="font-weight:bold;vertical-align:top;">script_name</td><td style="vertical-align:top;">:</td><td><div></div></td></tr><tr><td style="font-weight:bold;vertical-align:top;">server_name</td><td style="vertical-align:top;">:</td><td><div>Notebook-PC</div></td></tr><tr><td style="font-weight:bold;vertical-align:top;">server_port</td><td style="vertical-align:top;">:</td><td><div>8000</div></td></tr><tr><td style="font-weight:bold;vertical-align:top;">server_protocol</td><td style="vertical-align:top;">:</td><td><div>HTTP/1.1</div></td></tr><tr><td style="font-weight:bold;vertical-align:top;">server_software</td><td style="vertical-align:top;">:</td><td><div>Rocket 1.2.6</div></td></tr><tr><td style="font-weight:bold;vertical-align:top;">web2py_path</td><td style="vertical-align:top;">:</td><td><div>D:\\web2py</div></td></tr><tr><td style="font-weight:bold;vertical-align:top;">web2py_version</td><td style="vertical-align:top;">:</td><td><div>2.14.6-stable+timestamp.2016.05.10.00.21.47</div></td></tr><tr><td style="font-weight:bold;vertical-align:top;">wsgi.errors</td><td style="vertical-align:top;">:</td><td><div>&lt;open file &#x27;&lt;stderr&gt;&#x27;, mode &#x27;w&#x27; at 0x005DD0D0&gt;</div></td></tr><tr><td style="font-weight:bold;vertical-align:top;">wsgi.file_wrapper</td><td style="vertical-align:top;">:</td><td><div>&lt;class wsgiref.util.FileWrapper at 0x02F39420&gt;</div></td></tr><tr><td style="font-weight:bold;vertical-align:top;">wsgi.input</td><td style="vertical-align:top;">:</td><td><div>&lt;socket._fileobject object at 0x03866330&gt;</div></td></tr><tr><td style="font-weight:bold;vertical-align:top;">wsgi.multiprocess</td><td style="vertical-align:top;">:</td><td><div>False</div></td></tr><tr><td style="font-weight:bold;vertical-align:top;">wsgi.multithread</td><td style="vertical-align:top;">:</td><td><div>True</div></td></tr><tr><td style="font-weight:bold;vertical-align:top;">wsgi.run_once</td><td style="vertical-align:top;">:</td><td><div>False</div></td></tr><tr><td style="font-weight:bold;vertical-align:top;">wsgi.url_scheme</td><td style="vertical-align:top;">:</td><td><div>http</div></td></tr><tr><td style="font-weight:bold;vertical-align:top;">wsgi.version</td><td style="vertical-align:top;">:</td><td><div><table><tr><td><div>1</div></td></tr><tr><td><div>0</div></td></tr></table></div></td></tr><tr><td style="font-weight:bold;vertical-align:top;">wsgi_errors</td><td style="vertical-align:top;">:</td><td><div>&lt;open file &#x27;&lt;stderr&gt;&#x27;, mode &#x27;w&#x27; at 0x005DD0D0&gt;</div></td></tr><tr><td style="font-weight:bold;vertical-align:top;">wsgi_file_wrapper</td><td style="vertical-align:top;">:</td><td><div>&lt;class wsgiref.util.FileWrapper at 0x02F39420&gt;</div></td></tr><tr><td style="font-weight:bold;vertical-align:top;">wsgi_input</td><td style="vertical-align:top;">:</td><td><div>&lt;socket._fileobject object at 0x03866330&gt;</div></td></tr><tr><td style="font-weight:bold;vertical-align:top;">wsgi_multiprocess</td><td style="vertical-align:top;">:</td><td><div>False</div></td></tr><tr><td style="font-weight:bold;vertical-align:top;">wsgi_multithread</td><td style="vertical-align:top;">:</td><td><div>True</div></td></tr><tr><td style="font-weight:bold;vertical-align:top;">wsgi_run_once</td><td style="vertical-align:top;">:</td><td><div>False</div></td></tr><tr><td style="font-weight:bold;vertical-align:top;">wsgi_url_scheme</td><td style="vertical-align:top;">:</td><td><div>http</div></td></tr><tr><td style="font-weight:bold;vertical-align:top;">wsgi_version</td><td style="vertical-align:top;">:</td><td><div><table><tr><td><div>1</div></td></tr><tr><td><div>0</div></td></tr></table></div></td></tr></table></div></td></tr><tr><td style="font-weight:bold;vertical-align:top;">extension</td><td style="vertical-align:top;">:</td><td><div>html</div></td></tr><tr><td style="font-weight:bold;vertical-align:top;">folder</td><td style="vertical-align:top;">:</td><td><div>D:\\web2py\\applications\\BrainChaco\\</div></td></tr><tr><td style="font-weight:bold;vertical-align:top;">function</td><td style="vertical-align:top;">:</td><td><div>verificar_respuesta</div></td></tr><tr><td style="font-weight:bold;vertical-align:top;">global_settings</td><td style="vertical-align:top;">:</td><td><div><table><tr><td style="font-weight:bold;vertical-align:top;">app_folders</td><td style="vertical-align:top;">:</td><td><div>set([&#x27;D:\\\\web2py\\\\applications\\\\admin\\\\&#x27;, &#x27;D:\\\\web2py\\\\applications\\\\welcome\\\\&#x27;, &#x27;D:\\\\web2py\\\\applications\\\\BrainChaco\\\\&#x27;])</div></td></tr><tr><td style="font-weight:bold;vertical-align:top;">applications_parent</td><td style="vertical-align:top;">:</td><td><div>D:\\web2py</div></td></tr><tr><td style="font-weight:bold;vertical-align:top;">cmd_args</td><td style="vertical-align:top;">:</td><td><div><table></table></div></td></tr><tr><td style="font-weight:bold;vertical-align:top;">cmd_options</td><td style="vertical-align:top;">:</td><td><div>&lt;Values at 0x3669f08: {&#x27;verbose&#x27;: False, &#x27;ip&#x27;: &#x27;127.0.0.1&#x27;, &#x27;debuglevel&#x27;: 30, &#x27;with_scheduler&#x27;: False, &#x27;shutdown_timeout&#x27;: 5, &#x27;taskbar&#x27;: False, &#x27;with_coverage&#x27;: False, &#x27;pid_filename&#x27;: &#x27;httpserver.pid&#x27;, &#x27;maxthreads&#x27;: None, &#x27;softcron&#x27;: False, &#x27;server_name&#x27;: &#x27;Notebook-PC&#x27;, &#x27;bpython&#x27;: False, &#x27;nogui&#x27;: False, &#x27;port&#x27;: 8000, &#x27;print_errors&#x27;: False, &#x27;extcron&#x27;: False, &#x27;runcron&#x27;: False, &#x27;run_system_tests&#x27;: False, &#x27;test&#x27;: None, &#x27;folder&#x27;: &#x27;D:\\\\web2py&#x27;, &#x27;config&#x27;: &#x27;&#x27;, &#x27;minthreads&#x27;: None, &#x27;shell&#x27;: None, &#x27;run&#x27;: &#x27;&#x27;, &#x27;log_filename&#x27;: &#x27;httpserver.log&#x27;, &#x27;profiler_dir&#x27;: None, &#x27;args&#x27;: [&#x27;&#x27;], &#x27;socket_timeout&#x27;: 5, &#x27;ssl_ca_certificate&#x27;: None, &#x27;scheduler&#x27;: None, &#x27;interfaces&#x27;: None, &#x27;ssl_private_key&#x27;: &#x27;&#x27;, &#x27;gae&#x27;: None, &#x27;password&#x27;: &#x27;******&#x27;, &#x27;request_queue_size&#x27;: 5, &#x27;ssl_certificate&#x27;: &#x27;&#x27;, &#x27;cronjob&#x27;: False, &#x27;numthreads&#x27;: None, &#x27;quiet&#x27;: False, &#x27;import_models&#x27;: False, &#x27;timeout&#x27;: 10, &#x27;plain&#x27;: False, &#x27;nobanner&#x27;: False}&gt;</div></td></tr><tr><td style="font-weight:bold;vertical-align:top;">db_sessions</td><td style="vertical-align:top;">:</td><td><div>set([])</div></td></tr><tr><td style="font-weight:bold;vertical-align:top;">debugging</td><td style="vertical-align:top;">:</td><td><div>False</div></td></tr><tr><td style="font-weight:bold;vertical-align:top;">gluon_parent</td><td style="vertical-align:top;">:</td><td><div>D:\\web2py</div></td></tr><tr><td style="font-weight:bold;vertical-align:top;">is_jython</td><td style="vertical-align:top;">:</td><td><div>False</div></td></tr><tr><td style="font-weight:bold;vertical-align:top;">is_pypy</td><td style="vertical-align:top;">:</td><td><div>False</div></td></tr><tr><td style="font-weight:bold;vertical-align:top;">is_source</td><td style="vertical-align:top;">:</td><td><div>False</div></td></tr><tr><td style="font-weight:bold;vertical-align:top;">local_hosts</td><td style="vertical-align:top;">:</td><td><div><table><tr><td><div>Notebook-PC</div></td></tr><tr><td><div>::ffff:127.0.0.1</div></td></tr><tr><td><div>::1</div></td></tr><tr><td><div>fe80::8c8d:67ee:cd4e:f037%14</div></td></tr><tr><td><div>192.168.0.11</div></td></tr><tr><td><div>127.0.0.1</div></td></tr></table></div></td></tr><tr><td style="font-weight:bold;vertical-align:top;">web2py_version</td><td style="vertical-align:top;">:</td><td><div>2.14.6-stable+timestamp.2016.05.10.00.21.47</div></td></tr></table></div></td></tr><tr><td style="font-weight:bold;vertical-align:top;">is_https</td><td style="vertical-align:top;">:</td><td><div>False</div></td></tr><tr><td style="font-weight:bold;vertical-align:top;">is_local</td><td style="vertical-align:top;">:</td><td><div>True</div></td></tr><tr><td style="font-weight:bold;vertical-align:top;">is_restful</td><td style="vertical-align:top;">:</td><td><div>False</div></td></tr><tr><td style="font-weight:bold;vertical-align:top;">is_scheduler</td><td style="vertical-align:top;">:</td><td><div>False</div></td></tr><tr><td style="font-weight:bold;vertical-align:top;">is_shell</td><td style="vertical-align:top;">:</td><td><div>False</div></td></tr><tr><td style="font-weight:bold;vertical-align:top;">now</td><td style="vertical-align:top;">:</td><td><div>datetime.datetime(2016, 6, 9, 9, 49, 20, 121000)</div></td></tr><tr><td style="font-weight:bold;vertical-align:top;">raw_args</td><td style="vertical-align:top;">:</td><td><div></div></td></tr><tr><td style="font-weight:bold;vertical-align:top;">raw_extension</td><td style="vertical-align:top;">:</td><td><div>None</div></td></tr><tr><td style="font-weight:bold;vertical-align:top;">url</td><td style="vertical-align:top;">:</td><td><div>/BrainChaco/PreguntasController/verificar_respuesta</div></td></tr><tr><td style="font-weight:bold;vertical-align:top;">utcnow</td><td style="vertical-align:top;">:</td><td><div>datetime.datetime(2016, 6, 9, 12, 49, 20, 121000)</div></td></tr><tr><td style="font-weight:bold;vertical-align:top;">wsgi</td><td style="vertical-align:top;">:</td><td><div>&lt;gluon.main.LazyWSGI object at 0x078A5090&gt;</div></td></tr></table></div>'
tRp58
sS'frames'
p59
(lp60
(dp61
S'file'
p62
S'D:\\web2py\\gluon\\restricted.py'
p63
sS'dump'
p64
(dp65
S'environment'
p66
S"{'A': <class 'gluon.html.A'>, 'ANY_OF': <class 'gluon.validators.ANY_OF'>, 'ASSIGNJS': <function ASSIGNJS>, 'AppConfig': <function AppConfig>, 'Auth': <class 'gluon.tools.Auth'>, 'B': <class 'gluon.html.B'>, 'BEAUTIFY': <class 'gluon.html.BEAUTIFY'>, 'BODY': <class 'gluon.html.BODY'>, 'BR': <class 'gluon.html.BR'>, 'BUTTON': <class 'gluon.html.BUTTON'>, ...}"
p67
sS'ccode'
p68
S'<code object <module> at 078902F0, file "D:\\web2...co\\views\\PreguntasController/index.html", line 1>'
p69
ssS'lnum'
p70
I227
sS'lines'
p71
(dp72
I224
S'            ccode = code'
p73
sI225
S'        else:'
p74
sI226
S'            ccode = compile2(code, layer)'
p75
sI227
S'        exec ccode in environment'
p76
sI228
S'    except HTTP:'
p77
sI229
S'        raise'
p78
sI230
S'    except RestrictedError:'
p79
sI231
S'        # do not encapsulate (obfuscate) the original RestrictedError'
p80
sI222
S'    try:'
p81
sI223
S'        if isinstance(code, types.CodeType):'
p82
ssS'call'
p83
S'(code=\'response.write(\\\'<!DOCTYPE html>\\\\n<!--[if (gt IE ..."></script>\\\\n  </body>\\\\n</html>\\\\n\\\', escape=False)\', environment={\'A\': <class \'gluon.html.A\'>, \'ANY_OF\': <class \'gluon.validators.ANY_OF\'>, \'ASSIGNJS\': <function ASSIGNJS>, \'AppConfig\': <function AppConfig>, \'Auth\': <class \'gluon.tools.Auth\'>, \'B\': <class \'gluon.html.B\'>, \'BEAUTIFY\': <class \'gluon.html.BEAUTIFY\'>, \'BODY\': <class \'gluon.html.BODY\'>, \'BR\': <class \'gluon.html.BR\'>, \'BUTTON\': <class \'gluon.html.BUTTON\'>, ...}, layer=r\'D:\\web2py\\applications\\BrainChaco\\views\\PreguntasController/index.html\')'
p84
sS'func'
p85
S'restricted'
p86
sa(dp87
g62
S'D:\\web2py\\applications\\BrainChaco\\views\\PreguntasController\\index.html'
p88
sg64
(dp89
sg70
I111
sg71
(dp90
I102
S'response.write(\'">\\r\\n              <div class="radio">\\r\\n                \', escape=False)'
p91
sI103
S'for respuestas in respuesta:'
p92
sI104
S'    response.write(\'\\r\\n                <input type="radio" value="\', escape=False)'
p93
sI105
S'    response.write(respuestas[0])'
p94
sI106
S'    response.write(\'" name="respuesta">\', escape=False)'
p95
sI107
S'    response.write(respuestas[0])'
p96
sI108
S"    response.write('<br>\\r\\n                ', escape=False)"
p97
sI109
S'    pass'
p98
sI110
S'response.write(\'\\r\\n              </div>\\r\\n              <button class="btn btn-primary">ENVIAR</button>\\r\\n            </form>\\r\\n          </h3>\\r\\n        </div>\\r\\n    </div>\\r\\n      \\r\\n\\r\\n   <h1>\', escape=False)'
p99
sI111
S'response.write(message)'
p100
sI112
S'response.write(\'</h1>\\r\\n\\r\\n\\r\\n      <!--MODAL PARA INGRESAR EL NOMBRE-->\\r\\n      <div class="modal fade" id="mostrarmodal" tabindex="-1" role="dialog" aria-labelledby="basicModal" aria-hidden="true">\\r\\n        <div class="modal-dialog">\\r\\n          <div class="modal-content">\\r\\n             <div class="modal-header">\\r\\n                <h3>Ingrese Nombre</h3>\\r\\n             </div>\\r\\n             <div class="modal-body">\\r\\n                <input type="text" class="form-control" id="nomJugador">  \\r\\n                \\r\\n              </div>\\r\\n             <div class="modal-footer">\\r\\n              <button href="#" data-dismiss="modal" class="btn btn-info" id="btn-nom">Aceptar</button>\\r\\n             </div>\\r\\n          </div>\\r\\n        </div>\\r\\n      </div>\\r\\n</body>\\r\\n  \\r\\n      \\r\\n  \', escape=False)'
p101
sI113
S"response.write('\\n        ', escape=False)"
p102
sI114
S"response.write('\\n     \\n\\n      <!--', escape=False)"
p103
sI115
S'if right_sidebar_enabled:'
p104
sI116
S'    response.write(\'\\n        <div class="col-md-3">\\n            \', escape=False)'
p105
sI117
S"    response.write('\\n            <h3>Right Sidebar</h3>\\n            <p></p>\\n            ', escape=False)"
p106
sI118
S"    response.write('\\n        </div>\\n      ', escape=False)"
p107
sI119
S'    pass'
p108
sI120
S"response.write('-->\\n\\n  </div>  \\n\\n    ', escape=False)"
p109
sI121
S'response.write(\' <!-- this is default footer -->      \\n   \\n   <!-- <footer class="footer">\\n      <div class="container-fluid">\\n        <div class="copyright pull-left">\', escape=False)'
p110
ssg83
S'()'
p111
sg85
S'<module>'
p112
sa(dp113
g62
S'D:\\web2py\\gluon\\globals.py'
p114
sg64
(dp115
S'self.body.write'
p116
S'<built-in method write of cStringIO.StringO object>'
p117
sS'self.body'
p118
S'<cStringIO.StringO object>'
p119
sS'self'
p120
S"<Storage {'body': <cStringIO.StringO object at 0...CFB0>, 'view': 'PreguntasController/index.html'}>"
p121
sS'global xmlescape'
p122
S'<function xmlescape>'
p123
sS'data'
p124
S"<lazyT 'None'>"
p125
ssg70
I430
sg71
(dp126
I425
S''
sI426
S'    def write(self, data, escape=True):'
p127
sI427
S'        if not escape:'
p128
sI428
S'            self.body.write(str(data))'
p129
sI429
S'        else:'
p130
sI430
S'            self.body.write(xmlescape(data))'
p131
sI431
S''
sI432
S'    def render(self, *a, **b):'
p132
sI433
S'        from compileapp import run_view_in'
p133
sI434
S'        if len(a) > 2:'
p134
ssg83
S"(self=<Storage {'body': <cStringIO.StringO object at 0...CFB0>, 'view': 'PreguntasController/index.html'}>, data=<lazyT 'None'>, escape=True)"
p135
sg85
S'write'
p136
sa(dp137
g62
S'D:\\web2py\\gluon\\html.py'
p138
sg64
(dp139
S'data'
p140
S"<lazyT 'None'>"
p141
sS'data.xml'
p142
S"<bound method lazyT.xml of <lazyT 'None'>>"
p143
ssg70
I131
sg71
(dp144
I128
S''
sI129
S'    # first try the xml function'
p145
sI130
S"    if hasattr(data, 'xml') and callable(data.xml):"
p146
sI131
S'        return data.xml()'
p147
sI132
S''
sI133
S'    # otherwise, make it a string'
p148
sI134
S'    if not isinstance(data, (str, unicode)):'
p149
sI135
S'        data = str(data)'
p150
sI126
S'        quote: optional (default False)'
p151
sI127
S'    """'
p152
ssg83
S"(data=<lazyT 'None'>, quote=True)"
p153
sg85
S'xmlescape'
p154
sa(dp155
g62
S'D:\\web2py\\gluon\\languages.py'
p156
sg64
(dp157
S'builtinstr'
p158
S"<type 'str'>"
p159
sS'self'
p160
S"<lazyT 'None'>"
p161
sS'global escape'
p162
S'<function escape>'
p163
sS'self.M'
p164
S'False'
p165
ssg70
I429
sg71
(dp166
I424
S''
sI425
S'    def __len__(self):'
p167
sI426
S'        return len(str(self))'
p168
sI427
S''
sI428
S'    def xml(self):'
p169
sI429
S'        return str(self) if self.M else escape(str(self))'
p170
sI430
S''
sI431
S'    def encode(self, *a, **b):'
p171
sI432
S'        return str(self).encode(*a, **b)'
p172
sI433
S''
ssg83
S"(self=<lazyT 'None'>)"
p173
sg85
S'xml'
p174
sa(dp175
g62
S'D:\\web2py\\gluon\\languages.py'
p176
sg64
(dp177
S'self.T.translate'
p178
S'<bound method translator.translate of <gluon.languages.translator object>>'
p179
sS'self.s'
p180
g45
sS'self'
p181
S"<lazyT 'None'>"
p182
sS'self.T'
p183
S'<gluon.languages.translator object>'
p184
sS'self.m'
p185
S'None'
p186
ssg70
I389
sg71
(dp187
I384
S'    def __repr__(self):'
p188
sI385
S'        return "<lazyT %s>" % (repr(Utf8(self.m)), )'
p189
sI386
S''
sI387
S'    def __str__(self):'
p190
sI388
S'        return str(self.T.apply_filter(self.m, self.s, self.f, self.t) if self.M else'
p191
sI389
S'                   self.T.translate(self.m, self.s))'
p192
sI390
S''
sI391
S'    def __eq__(self, other):'
p193
sI392
S'        return str(self) == str(other)'
p194
sI393
S''
ssg83
S"(self=<lazyT 'None'>)"
p195
sg85
g26
sa(dp196
g62
S'D:\\web2py\\gluon\\languages.py'
p197
sg64
(dp198
S'self'
p199
S'<gluon.languages.translator object>'
p200
sS'self.get_t'
p201
S'<bound method translator.get_t of <gluon.languages.translator object>>'
p202
sS'message'
p203
S'None'
p204
ssg70
I935
sg71
(dp205
I930
S'    def translate(self, message, symbols):'
p206
sI931
S'        """'
p207
sI932
S'        Gets cached translated message with inserted parameters(symbols)'
p208
sI933
S'        """'
p209
sI934
S'        message = get_from_cache(self.cache, message,'
p210
sI935
S'                                 lambda: self.get_t(message))'
p211
sI936
S'        if symbols or symbols == 0 or symbols == "":'
p212
sI937
S'            if isinstance(symbols, dict):'
p213
sI938
S'                symbols.update('
p214
sI939
S'                    (key, str(value).translate(ttab_in))'
p215
ssg83
S'(self=<gluon.languages.translator object>, message=None, symbols={})'
p216
sg85
S'translate'
p217
sa(dp218
g62
S'D:\\web2py\\gluon\\languages.py'
p219
sg64
(dp220
S'fun'
p221
S'<function <lambda>>'
p222
sS'val'
p223
S'None'
p224
sS'lang_dict.setdefault'
p225
S'<built-in method setdefault of dict object>'
p226
sS'result'
p227
S'None'
p228
sS'lang_dict'
p229
S'{\'\': \'\', \'%Y-%m-%d\': \'%d/%m/%Y\', \'%Y-%m-%d %H:%M:%S\': \'%d/%m/%Y %H:%M:%S\', \'@markmin\\x01An error occured, please [[reload %s]] the page\': \'Ha ocurrido un error, por favor <a href="%s">recargar</a> la p\\xc3\\xa1gina\', \'About\': \'Acerca de\', \'Access Control\': \'Control de Acceso\', \'Ajax Recipes\': \'Recetas AJAX\', \'Are you sure you want to delete this object?\': \'\\xc2\\xbfEst\\xc3\\xa1 seguro que desea borrar este objeto?\', "Buy web2py\'s book": "Buy web2py\'s book", \'Community\': \'Comunidad\', ...}'
p230
ssg70
I149
sg71
(dp231
I144
S'        lock.release()'
p232
sI145
S'    if result:'
p233
sI146
S'        return result'
p234
sI147
S'    lock.acquire()'
p235
sI148
S'    try:'
p236
sI149
S'        result = lang_dict.setdefault(val, fun())'
p237
sI150
S'    finally:'
p238
sI151
S'        lock.release()'
p239
sI152
S'    return result'
p240
sI153
S''
ssg83
S'(cache=({\'\': \'\', \'%Y-%m-%d\': \'%d/%m/%Y\', \'%Y-%m-%d %H:%M:%S\': \'%d/%m/%Y %H:%M:%S\', \'@markmin\\x01An error occured, please [[reload %s]] the page\': \'Ha ocurrido un error, por favor <a href="%s">recargar</a> la p\\xc3\\xa1gina\', \'About\': \'Acerca de\', \'Access Control\': \'Control de Acceso\', \'Ajax Recipes\': \'Recetas AJAX\', \'Are you sure you want to delete this object?\': \'\\xc2\\xbfEst\\xc3\\xa1 seguro que desea borrar este objeto?\', "Buy web2py\'s book": "Buy web2py\'s book", \'Community\': \'Comunidad\', ...}, <_RLock owner=None count=0>), val=None, fun=<function <lambda>>)'
p241
sg85
S'get_from_cache'
p242
sa(dp243
g62
S'D:\\web2py\\gluon\\languages.py'
p244
sg64
(dp245
S'self'
p246
S'<gluon.languages.translator object>'
p247
sS'self.get_t'
p248
S'<bound method translator.get_t of <gluon.languages.translator object>>'
p249
sS'message'
p250
S'None'
p251
ssg70
I935
sg71
(dp252
I930
S'    def translate(self, message, symbols):'
p253
sI931
S'        """'
p254
sI932
S'        Gets cached translated message with inserted parameters(symbols)'
p255
sI933
S'        """'
p256
sI934
S'        message = get_from_cache(self.cache, message,'
p257
sI935
S'                                 lambda: self.get_t(message))'
p258
sI936
S'        if symbols or symbols == 0 or symbols == "":'
p259
sI937
S'            if isinstance(symbols, dict):'
p260
sI938
S'                symbols.update('
p261
sI939
S'                    (key, str(value).translate(ttab_in))'
p262
ssg83
S'()'
p263
sg85
S'<lambda>'
p264
sa(dp265
g62
S'D:\\web2py\\gluon\\languages.py'
p266
sg64
(dp267
S'prefix'
p268
S"''"
p269
sS'message'
p270
S'None'
p271
sS'key'
p272
S'undefined'
p273
ssg70
I807
sg71
(dp274
I802
S'        """'
p275
sI803
S'        if isinstance(message, unicode):'
p276
sI804
S"            message = message.encode('utf8')"
p277
sI805
S'        if isinstance(prefix, unicode):'
p278
sI806
S"            prefix = prefix.encode('utf8')"
p279
sI807
S'        key = prefix + message'
p280
sI808
S'        mt = self.t.get(key, None)'
p281
sI809
S'        if mt is not None:'
p282
sI810
S'            return mt'
p283
sI811
S'        # we did not find a translation'
p284
ssg83
S"(self=<gluon.languages.translator object>, message=None, prefix='')"
p285
sg85
S'get_t'
p286
sasS'pyver'
p287
S'Python 2.7.9: D:\\web2py\\web2py.exe (prefix: )'
p288
sS'session'
p289
g57
(S's\x1a\x00\x00\x00<div><table></table></div>'
tRp290
sS'etype'
p291
S"<type 'exceptions.TypeError'>"
p292
sS'date'
p293
S'Thu Jun 09 09:49:20 2016'
p294
sS'response'
p295
g57
(S's\xf5?\x00\x00<div><table><tr><td style="font-weight:bold;vertical-align:top;">body</td><td style="vertical-align:top;">:</td><td><div>&lt;cStringIO.StringO object at 0x044964C0&gt;</div></td></tr><tr><td style="font-weight:bold;vertical-align:top;">cookies</td><td style="vertical-align:top;">:</td><td><div><table><tr><td style="font-weight:bold;vertical-align:top;">session_id_brainchaco</td><td style="vertical-align:top;">:</td><td><div>127.0.0.1-5c3b11fa-3e6c-430d-bfbb-fc4b723c8d97<table><tr><td style="font-weight:bold;vertical-align:top;">comment</td><td style="vertical-align:top;">:</td><td><div></div></td></tr><tr><td style="font-weight:bold;vertical-align:top;">domain</td><td style="vertical-align:top;">:</td><td><div></div></td></tr><tr><td style="font-weight:bold;vertical-align:top;">expires</td><td style="vertical-align:top;">:</td><td><div></div></td></tr><tr><td style="font-weight:bold;vertical-align:top;">httponly</td><td style="vertical-align:top;">:</td><td><div></div></td></tr><tr><td style="font-weight:bold;vertical-align:top;">max-age</td><td style="vertical-align:top;">:</td><td><div></div></td></tr><tr><td style="font-weight:bold;vertical-align:top;">path</td><td style="vertical-align:top;">:</td><td><div>/</div></td></tr><tr><td style="font-weight:bold;vertical-align:top;">secure</td><td style="vertical-align:top;">:</td><td><div></div></td></tr><tr><td style="font-weight:bold;vertical-align:top;">version</td><td style="vertical-align:top;">:</td><td><div></div></td></tr></table></div></td></tr></table></div></td></tr><tr><td style="font-weight:bold;vertical-align:top;">delimiters</td><td style="vertical-align:top;">:</td><td><div><table><tr><td><div>{{</div></td></tr><tr><td><div>}}</div></td></tr></table></div></td></tr><tr><td style="font-weight:bold;vertical-align:top;">files</td><td style="vertical-align:top;">:</td><td><div><table><tr><td><div>/BrainChaco/static/js/jquery.js</div></td></tr><tr><td><div>/BrainChaco/static/css/calendar.css</div></td></tr><tr><td><div>/BrainChaco/static/js/calendar.js</div></td></tr><tr><td><div>/BrainChaco/static/js/web2py.js</div></td></tr></table></div></td></tr><tr><td style="font-weight:bold;vertical-align:top;">flash</td><td style="vertical-align:top;">:</td><td><div></div></td></tr><tr><td style="font-weight:bold;vertical-align:top;">form_label_separator</td><td style="vertical-align:top;">:</td><td><div></div></td></tr><tr><td style="font-weight:bold;vertical-align:top;">formstyle</td><td style="vertical-align:top;">:</td><td><div>bootstrap3_inline</div></td></tr><tr><td style="font-weight:bold;vertical-align:top;">generic_patterns</td><td style="vertical-align:top;">:</td><td><div><table><tr><td><div>*</div></td></tr></table></div></td></tr><tr><td style="font-weight:bold;vertical-align:top;">google_analytics_id</td><td style="vertical-align:top;">:</td><td><div>None</div></td></tr><tr><td style="font-weight:bold;vertical-align:top;">headers</td><td style="vertical-align:top;">:</td><td><div><table><tr><td style="font-weight:bold;vertical-align:top;">X-Powered-By</td><td style="vertical-align:top;">:</td><td><div>web2py</div></td></tr></table></div></td></tr><tr><td style="font-weight:bold;vertical-align:top;">logo</td><td style="vertical-align:top;">:</td><td><div><a class="navbar-brand" href="http://www.web2py.com/" id="web2py-logo"><b>web<span>2</span>py</b>&trade;&nbsp;</a></div></td></tr><tr><td style="font-weight:bold;vertical-align:top;">menu</td><td style="vertical-align:top;">:</td><td><div><table><tr><td><div><table><tr><td><div>Inicio</div></td></tr><tr><td><div>False</div></td></tr><tr><td><div>/BrainChaco/default/index</div></td></tr><tr><td><div><table></table></div></td></tr></table></div></td></tr><tr><td><div><table><tr><td><div>Mis Sitios</div></td></tr><tr><td><div>False</div></td></tr><tr><td><div>/admin/default/site</div></td></tr></table></div></td></tr><tr><td><div><table><tr><td><div>Esta Aplicaci\xc3\xb3n</div></td></tr><tr><td><div>False</div></td></tr><tr><td><div>#</div></td></tr><tr><td><div><table><tr><td><div><table><tr><td><div>Design</div></td></tr><tr><td><div>False</div></td></tr><tr><td><div>/admin/default/design/BrainChaco</div></td></tr></table></div></td></tr><tr><td><div><li class="divider"></li></div></td></tr><tr><td><div><table><tr><td><div>Controlador</div></td></tr><tr><td><div>False</div></td></tr><tr><td><div>/admin/default/edit/BrainChaco/controllers/PreguntasController.py</div></td></tr></table></div></td></tr><tr><td><div><table><tr><td><div>Vista</div></td></tr><tr><td><div>False</div></td></tr><tr><td><div>/admin/default/edit/BrainChaco/views/PreguntasController/verificar_respuesta.html</div></td></tr></table></div></td></tr><tr><td><div><table><tr><td><div>Modelo BDD</div></td></tr><tr><td><div>False</div></td></tr><tr><td><div>/admin/default/edit/BrainChaco/models/db.py</div></td></tr></table></div></td></tr><tr><td><div><table><tr><td><div>Modelo "menu"</div></td></tr><tr><td><div>False</div></td></tr><tr><td><div>/admin/default/edit/BrainChaco/models/menu.py</div></td></tr></table></div></td></tr><tr><td><div><table><tr><td><div>Config.ini</div></td></tr><tr><td><div>False</div></td></tr><tr><td><div>/admin/default/edit/BrainChaco/private/appconfig.ini</div></td></tr></table></div></td></tr><tr><td><div><table><tr><td><div>Dise\xc3\xb1o de p\xc3\xa1gina</div></td></tr><tr><td><div>False</div></td></tr><tr><td><div>/admin/default/edit/BrainChaco/views/layout.html</div></td></tr></table></div></td></tr><tr><td><div><table><tr><td><div>Hoja de estilo</div></td></tr><tr><td><div>False</div></td></tr><tr><td><div>/admin/default/edit/BrainChaco/static/css/web2py-bootstrap3.css</div></td></tr></table></div></td></tr><tr><td><div><table><tr><td><div>Base de datos</div></td></tr><tr><td><div>False</div></td></tr><tr><td><div>/BrainChaco/appadmin/index</div></td></tr></table></div></td></tr><tr><td><div><table><tr><td><div>Errores</div></td></tr><tr><td><div>False</div></td></tr><tr><td><div>/admin/default/errors/BrainChaco</div></td></tr></table></div></td></tr><tr><td><div><table><tr><td><div>Acerca de</div></td></tr><tr><td><div>False</div></td></tr><tr><td><div>/admin/default/about/BrainChaco</div></td></tr></table></div></td></tr></table></div></td></tr></table></div></td></tr><tr><td><div><table><tr><td><div>web2py.com</div></td></tr><tr><td><div>False</div></td></tr><tr><td><div>#</div></td></tr><tr><td><div><table><tr><td><div><table><tr><td><div>Descargas</div></td></tr><tr><td><div>False</div></td></tr><tr><td><div>http://www.web2py.com/examples/default/download</div></td></tr></table></div></td></tr><tr><td><div><table><tr><td><div>Soporte</div></td></tr><tr><td><div>False</div></td></tr><tr><td><div>http://www.web2py.com/examples/default/support</div></td></tr></table></div></td></tr><tr><td><div><table><tr><td><div>Demostraci\xc3\xb3n</div></td></tr><tr><td><div>False</div></td></tr><tr><td><div>http://web2py.com/demo_admin</div></td></tr></table></div></td></tr><tr><td><div><table><tr><td><div>Ejemplos R\xc3\xa1pidos</div></td></tr><tr><td><div>False</div></td></tr><tr><td><div>http://web2py.com/examples/default/examples</div></td></tr></table></div></td></tr><tr><td><div><table><tr><td><div>FAQ</div></td></tr><tr><td><div>False</div></td></tr><tr><td><div>http://web2py.com/AlterEgo</div></td></tr></table></div></td></tr><tr><td><div><table><tr><td><div>V\xc3\xaddeos</div></td></tr><tr><td><div>False</div></td></tr><tr><td><div>http://www.web2py.com/examples/default/videos/</div></td></tr></table></div></td></tr><tr><td><div><table><tr><td><div>Aplicaciones Libres</div></td></tr><tr><td><div>False</div></td></tr><tr><td><div>http://web2py.com/appliances</div></td></tr></table></div></td></tr><tr><td><div><table><tr><td><div>Plugins</div></td></tr><tr><td><div>False</div></td></tr><tr><td><div>http://web2py.com/plugins</div></td></tr></table></div></td></tr><tr><td><div><table><tr><td><div>Recetas</div></td></tr><tr><td><div>False</div></td></tr><tr><td><div>http://web2pyslices.com/</div></td></tr></table></div></td></tr></table></div></td></tr></table></div></td></tr><tr><td><div><table><tr><td><div>Documentaci\xc3\xb3n</div></td></tr><tr><td><div>False</div></td></tr><tr><td><div>#</div></td></tr><tr><td><div><table><tr><td><div><table><tr><td><div>Online book</div></td></tr><tr><td><div>False</div></td></tr><tr><td><div>http://www.web2py.com/book</div></td></tr></table></div></td></tr><tr><td><div><li class="divider"></li></div></td></tr><tr><td><div><table><tr><td><div>Prefacio</div></td></tr><tr><td><div>False</div></td></tr><tr><td><div>http://www.web2py.com/book/default/chapter/00</div></td></tr></table></div></td></tr><tr><td><div><table><tr><td><div>Introducci\xc3\xb3n</div></td></tr><tr><td><div>False</div></td></tr><tr><td><div>http://www.web2py.com/book/default/chapter/01</div></td></tr></table></div></td></tr><tr><td><div><table><tr><td><div>Python</div></td></tr><tr><td><div>False</div></td></tr><tr><td><div>http://www.web2py.com/book/default/chapter/02</div></td></tr></table></div></td></tr><tr><td><div><table><tr><td><div>Resumen</div></td></tr><tr><td><div>False</div></td></tr><tr><td><div>http://www.web2py.com/book/default/chapter/03</div></td></tr></table></div></td></tr><tr><td><div><table><tr><td><div>El N\xc3\xbacleo</div></td></tr><tr><td><div>False</div></td></tr><tr><td><div>http://www.web2py.com/book/default/chapter/04</div></td></tr></table></div></td></tr><tr><td><div><table><tr><td><div>Las Vistas</div></td></tr><tr><td><div>False</div></td></tr><tr><td><div>http://www.web2py.com/book/default/chapter/05</div></td></tr></table></div></td></tr><tr><td><div><table><tr><td><div>Base de datos</div></td></tr><tr><td><div>False</div></td></tr><tr><td><div>http://www.web2py.com/book/default/chapter/06</div></td></tr></table></div></td></tr><tr><td><div><table><tr><td><div>Formularios y validadores</div></td></tr><tr><td><div>False</div></td></tr><tr><td><div>http://www.web2py.com/book/default/chapter/07</div></td></tr></table></div></td></tr><tr><td><div><table><tr><td><div>Correo electr\xc3\xb3nico y SMS</div></td></tr><tr><td><div>False</div></td></tr><tr><td><div>http://www.web2py.com/book/default/chapter/08</div></td></tr></table></div></td></tr><tr><td><div><table><tr><td><div>Control de Acceso</div></td></tr><tr><td><div>False</div></td></tr><tr><td><div>http://www.web2py.com/book/default/chapter/09</div></td></tr></table></div></td></tr><tr><td><div><table><tr><td><div>Servicios</div></td></tr><tr><td><div>False</div></td></tr><tr><td><div>http://www.web2py.com/book/default/chapter/10</div></td></tr></table></div></td></tr><tr><td><div><table><tr><td><div>Recetas AJAX</div></td></tr><tr><td><div>False</div></td></tr><tr><td><div>http://www.web2py.com/book/default/chapter/11</div></td></tr></table></div></td></tr><tr><td><div><table><tr><td><div>Componentes y Plugins</div></td></tr><tr><td><div>False</div></td></tr><tr><td><div>http://www.web2py.com/book/default/chapter/12</div></td></tr></table></div></td></tr><tr><td><div><table><tr><td><div>Recetas de despliegue</div></td></tr><tr><td><div>False</div></td></tr><tr><td><div>http://www.web2py.com/book/default/chapter/13</div></td></tr></table></div></td></tr><tr><td><div><table><tr><td><div>Otras Recetas</div></td></tr><tr><td><div>False</div></td></tr><tr><td><div>http://www.web2py.com/book/default/chapter/14</div></td></tr></table></div></td></tr><tr><td><div><table><tr><td><div>Helping web2py</div></td></tr><tr><td><div>False</div></td></tr><tr><td><div>http://www.web2py.com/book/default/chapter/15</div></td></tr></table></div></td></tr><tr><td><div><table><tr><td><div>Buy web2py\'s book</div></td></tr><tr><td><div>False</div></td></tr><tr><td><div>http://stores.lulu.com/web2py</div></td></tr></table></div></td></tr></table></div></td></tr></table></div></td></tr><tr><td><div><table><tr><td><div>Comunidad</div></td></tr><tr><td><div>False</div></td></tr><tr><td><div>None</div></td></tr><tr><td><div><table><tr><td><div><table><tr><td><div>Grupos</div></td></tr><tr><td><div>False</div></td></tr><tr><td><div>http://www.web2py.com/examples/default/usergroups</div></td></tr></table></div></td></tr><tr><td><div><table><tr><td><div>Twitter</div></td></tr><tr><td><div>False</div></td></tr><tr><td><div>http://twitter.com/web2py</div></td></tr></table></div></td></tr><tr><td><div><table><tr><td><div>Chat en vivo</div></td></tr><tr><td><div>False</div></td></tr><tr><td><div>http://webchat.freenode.net/?channels=web2py</div></td></tr></table></div></td></tr></table></div></td></tr></table></div></td></tr></table></div></td></tr><tr><td style="font-weight:bold;vertical-align:top;">meta</td><td style="vertical-align:top;">:</td><td><div><table><tr><td style="font-weight:bold;vertical-align:top;">author</td><td style="vertical-align:top;">:</td><td><div>Your Name &lt;you@example.com&gt;</div></td></tr><tr><td style="font-weight:bold;vertical-align:top;">description</td><td style="vertical-align:top;">:</td><td><div>a cool new app</div></td></tr><tr><td style="font-weight:bold;vertical-align:top;">generator</td><td style="vertical-align:top;">:</td><td><div>Web2py Web Framework</div></td></tr><tr><td style="font-weight:bold;vertical-align:top;">keywords</td><td style="vertical-align:top;">:</td><td><div><table><tr><td><div>web2py</div></td></tr><tr><td><div>python</div></td></tr><tr><td><div>framework</div></td></tr></table></div></td></tr></table></div></td></tr><tr><td style="font-weight:bold;vertical-align:top;">models_to_run</td><td style="vertical-align:top;">:</td><td><div><table><tr><td><div>^\\w+\\.py$</div></td></tr><tr><td><div>^PreguntasController/\\w+\\.py$</div></td></tr><tr><td><div>^PreguntasController/verificar_respuesta/\\w+\\.py$</div></td></tr></table></div></td></tr><tr><td style="font-weight:bold;vertical-align:top;">postprocessing</td><td style="vertical-align:top;">:</td><td><div><table></table></div></td></tr><tr><td style="font-weight:bold;vertical-align:top;">session_client</td><td style="vertical-align:top;">:</td><td><div>127.0.0.1</div></td></tr><tr><td style="font-weight:bold;vertical-align:top;">session_cookie_compression_level</td><td style="vertical-align:top;">:</td><td><div>None</div></td></tr><tr><td style="font-weight:bold;vertical-align:top;">session_cookie_expires</td><td style="vertical-align:top;">:</td><td><div>None</div></td></tr><tr><td style="font-weight:bold;vertical-align:top;">session_data_name</td><td style="vertical-align:top;">:</td><td><div>session_data_brainchaco</div></td></tr><tr><td style="font-weight:bold;vertical-align:top;">session_file</td><td style="vertical-align:top;">:</td><td><div>None</div></td></tr><tr><td style="font-weight:bold;vertical-align:top;">session_filename</td><td style="vertical-align:top;">:</td><td><div>D:\\web2py\\applications\\BrainChaco\\sessions\\127.0.0.1-5c3b11fa-3e6c-430d-bfbb-fc4b723c8d97</div></td></tr><tr><td style="font-weight:bold;vertical-align:top;">session_hash</td><td style="vertical-align:top;">:</td><td><div>c0762cbf4baf7f9af97c051e7fcb8083</div></td></tr><tr><td style="font-weight:bold;vertical-align:top;">session_id</td><td style="vertical-align:top;">:</td><td><div>127.0.0.1-5c3b11fa-3e6c-430d-bfbb-fc4b723c8d97</div></td></tr><tr><td style="font-weight:bold;vertical-align:top;">session_id_name</td><td style="vertical-align:top;">:</td><td><div>session_id_brainchaco</div></td></tr><tr><td style="font-weight:bold;vertical-align:top;">session_masterapp</td><td style="vertical-align:top;">:</td><td><div>BrainChaco</div></td></tr><tr><td style="font-weight:bold;vertical-align:top;">session_new</td><td style="vertical-align:top;">:</td><td><div>True</div></td></tr><tr><td style="font-weight:bold;vertical-align:top;">session_storage_type</td><td style="vertical-align:top;">:</td><td><div>file</div></td></tr><tr><td style="font-weight:bold;vertical-align:top;">status</td><td style="vertical-align:top;">:</td><td><div>200</div></td></tr><tr><td style="font-weight:bold;vertical-align:top;">subtitle</td><td style="vertical-align:top;">:</td><td><div></div></td></tr><tr><td style="font-weight:bold;vertical-align:top;">title</td><td style="vertical-align:top;">:</td><td><div>Brainchaco</div></td></tr><tr><td style="font-weight:bold;vertical-align:top;">view</td><td style="vertical-align:top;">:</td><td><div>PreguntasController/index.html</div></td></tr></table></div>'
tRp296
sS'locals'
p297
(dp298
S'prefix'
p299
S"''"
p300
sS'message'
p301
S'None'
p302
sS'self'
p303
S'<gluon.languages.translator object>'
p304
sssS'traceback'
p305
S'Traceback (most recent call last):\n  File "D:\\web2py\\gluon\\restricted.py", line 227, in restricted\n    exec ccode in environment\n  File "D:\\web2py\\applications\\BrainChaco\\views\\PreguntasController/index.html", line 111, in <module>\n  File "D:\\web2py\\gluon\\globals.py", line 430, in write\n    self.body.write(xmlescape(data))\n  File "D:\\web2py\\gluon\\html.py", line 131, in xmlescape\n    return data.xml()\n  File "D:\\web2py\\gluon\\languages.py", line 429, in xml\n    return str(self) if self.M else escape(str(self))\n  File "D:\\web2py\\gluon\\languages.py", line 389, in __str__\n    self.T.translate(self.m, self.s))\n  File "D:\\web2py\\gluon\\languages.py", line 935, in translate\n    lambda: self.get_t(message))\n  File "D:\\web2py\\gluon\\languages.py", line 149, in get_from_cache\n    result = lang_dict.setdefault(val, fun())\n  File "D:\\web2py\\gluon\\languages.py", line 935, in <lambda>\n    lambda: self.get_t(message))\n  File "D:\\web2py\\gluon\\languages.py", line 807, in get_t\n    key = prefix + message\nTypeError: cannot concatenate \'str\' and \'NoneType\' objects\n'
p306
s.