(dp1
S'output'
p2
S"<type 'exceptions.AttributeError'> 'DAL' object has no attribute 'usuario'"
p3
sS'layer'
p4
S'D:\\web2py\\applications\\BrainChaco\\controllers/JugadorController.py'
p5
sS'code'
p6
S'# -*- coding: utf-8 -*-\n# intente algo como\nimport smtplib\n\ndef login(): \n    response.view = "JugadorController/login.html"\n    return dict(LError=\'\',LNom=\'\',LPsw=\'\')\n\n\ndef loginCompleto():\n\tform = request.post_vars\n\trow = db((db.usuario.nombre == form.LNom) & (db.usuario.psw == form.LPsw)).select()\n\tif len(row)== 0:\n\t\tresponse.view = "JugadorController/login.html"\n\t\treturn dict(LNom=form.LNom,LPsw=form.LPsw,LError=\'Usuario no registrado / Ingreso mal sus datos\')\n\telse:\n\t\tresponse.view = "JugadorController/login.html"\n   \t\tsession.puntaje=0\n   \t\tsession.jugador=form.LNom\n   \t\treturn dict(LNom=form.LNom,LPsw=form.LPsw,LError=\'Bienvenido\')\n\ndef registro(): \n    response.view = "JugadorController/registro.html"\n    return dict(nombre=\'\',email=\'\',psw=\'\',Error=\'\',EError=\'\')\n\ndef registroCompleto():\n\tform = request.post_vars\n\tnick = db(db.usuario.nombre == form.Nom).select()\n\tcorr = db(db.usuario.correo == form.Eml).select()\n\tif (len(nick) == 0) and (len(corr) == 0):\n\t\tdb.usuario.insert(nombre=form.Nom,correo=form.Eml,password=form.Pas)\n\t\tresponse.view = "JugadorController/registro.html"\n\t\tsession.puntaje=0\n   \t\tsession.jugador=form.Nom\n\t\treturn dict(nombre=\'\',email=\'\',psw=\'\',Error=\'Registro Exitoso!\',EError=\'\')\n\telif (len(corr) == 0):\n\t\tresponse.view = "JugadorController/registro.html"\n\t\treturn dict(nombre=form.Nom,email=form.Eml,psw=form.psw,Error=\'Nombre ya existe\',EError=\'\')\n\telif (len(nick) == 0):\n\t\tresponse.view = "JugadorController/registro.html"\n\t\treturn dict(nombre=form.Nom,email=form.Eml,psw=form.psw,Error=\'\',EError=\'Correo ya esta registrado\')\n\n\telse:\n\t\tresponse.view = "JugadorController/registro.html"\n\t\treturn dict(nombre=form.Nom,email=form.Eml,psw=form.psw,Error=\'El Nombre ya existe\',EError=\'el Correo ya esta registrado\')\t\n\n\ndef recuperar():\n\tresponse.view= "JugadorController/recuperar.html"\n\treturn dict(nombre=\'\',Error=\'\')\n\ndef mensaje():\n\tdatos = request.post_vars\n\trow = db(db.usuario.correo == datos.rEm).select()\n\tif len(row)==0:\n\t\tresponse.view= "JugadorController/recuperar.html"\n\t\treturn dict(nombre=\'\',Error=\'Correo Erroneo\')\n\telse:\n\t\tresponse.view= "JugadorController/login.html"\n\t\tusuario = dict(row=row)\n\t\tfor dato in row:\n\t\t\tcontra = dato.psw\n\t\tsender = \'projectonepm@gmail.com\'\n\t\tlogin = \'projectonepm@gmail.com:demos2016\'\n\t\tsend_test_to = \'fernandoarielfz@gmail.com\'\n\t\tmail.settings.tls = True\n\t\tserver = \'{0}{1}{2}\'.format(\'smtp.\', \'gmail.com\', \':465\')\n\t\tmail.settings.server = server\n\t\tmail.settings.sender = sender\n\t\tmail.settings.login = login\n\t\tmail.send(to=[send_test_to],\n            subject=\'Recuperar Contrase\xc3\xb1a\',\n            \n            message=\'Su contrase\xc3\xb1a es: \' + contra)     \n\t\treturn dict(nombre=\'\',Error=\'\',LError=\'\',LNom=\'\',LPsw=\'\')\n\ndef cerrar():\n\tsession.jugador=None\n\tredirect(URL(\'HomeController\'))\n\treturn dict()\nresponse._vars=response._caller(registroCompleto)\n'
p7
sS'snapshot'
p8
(dp9
S'exception'
p10
(dp11
S'__hash__'
p12
S"<method-wrapper '__hash__' of exceptions.AttributeError object>"
p13
sS'__setattr__'
p14
S"<method-wrapper '__setattr__' of exceptions.AttributeError object>"
p15
sS'__reduce_ex__'
p16
S'<built-in method __reduce_ex__ of exceptions.AttributeError object>'
p17
sS'__getslice__'
p18
S"<method-wrapper '__getslice__' of exceptions.AttributeError object>"
p19
sS'__getitem__'
p20
S"<method-wrapper '__getitem__' of exceptions.AttributeError object>"
p21
sS'__setstate__'
p22
S'<built-in method __setstate__ of exceptions.AttributeError object>'
p23
sS'__reduce__'
p24
S'<built-in method __reduce__ of exceptions.AttributeError object>'
p25
sS'__str__'
p26
S"<method-wrapper '__str__' of exceptions.AttributeError object>"
p27
sS'__format__'
p28
S'<built-in method __format__ of exceptions.AttributeError object>'
p29
sS'__getattribute__'
p30
S"<method-wrapper '__getattribute__' of exceptions.AttributeError object>"
p31
sS'__class__'
p32
S"<type 'exceptions.AttributeError'>"
p33
sS'__unicode__'
p34
S'<built-in method __unicode__ of exceptions.AttributeError object>'
p35
sS'__delattr__'
p36
S"<method-wrapper '__delattr__' of exceptions.AttributeError object>"
p37
sS'__subclasshook__'
p38
S'<built-in method __subclasshook__ of type object>'
p39
sS'__repr__'
p40
S"<method-wrapper '__repr__' of exceptions.AttributeError object>"
p41
sS'args'
p42
S'("\'DAL\' object has no attribute \'usuario\'",)'
p43
sS'__dict__'
p44
S'{}'
p45
sS'__sizeof__'
p46
S'<built-in method __sizeof__ of exceptions.AttributeError object>'
p47
sS'__doc__'
p48
S"'Attribute not found.'"
p49
sS'__init__'
p50
S"<method-wrapper '__init__' of exceptions.AttributeError object>"
p51
sS'__new__'
p52
S'<built-in method __new__ of type object>'
p53
ssS'evalue'
p54
S"'DAL' object has no attribute 'usuario'"
p55
sS'request'
p56
cgluon.html
XML_unpickle
p57
(S's\xcfc\x00\x00<div><table><tr><td style="font-weight:bold;vertical-align:top;">ajax</td><td style="vertical-align:top;">:</td><td><div>False</div></td></tr><tr><td style="font-weight:bold;vertical-align:top;">application</td><td style="vertical-align:top;">:</td><td><div>BrainChaco</div></td></tr><tr><td style="font-weight:bold;vertical-align:top;">args</td><td style="vertical-align:top;">:</td><td><div><table></table></div></td></tr><tr><td style="font-weight:bold;vertical-align:top;">cid</td><td style="vertical-align:top;">:</td><td><div>None</div></td></tr><tr><td style="font-weight:bold;vertical-align:top;">client</td><td style="vertical-align:top;">:</td><td><div>127.0.0.1</div></td></tr><tr><td style="font-weight:bold;vertical-align:top;">controller</td><td style="vertical-align:top;">:</td><td><div>JugadorController</div></td></tr><tr><td style="font-weight:bold;vertical-align:top;">cookies</td><td style="vertical-align:top;">:</td><td><div><table><tr><td style="font-weight:bold;vertical-align:top;">session_id_admin</td><td style="vertical-align:top;">:</td><td><div>127.0.0.1-fbd4b772-68c9-4d1c-ab1b-de9fe3482d37<table><tr><td style="font-weight:bold;vertical-align:top;">comment</td><td style="vertical-align:top;">:</td><td><div></div></td></tr><tr><td style="font-weight:bold;vertical-align:top;">domain</td><td style="vertical-align:top;">:</td><td><div></div></td></tr><tr><td style="font-weight:bold;vertical-align:top;">expires</td><td style="vertical-align:top;">:</td><td><div></div></td></tr><tr><td style="font-weight:bold;vertical-align:top;">httponly</td><td style="vertical-align:top;">:</td><td><div></div></td></tr><tr><td style="font-weight:bold;vertical-align:top;">max-age</td><td style="vertical-align:top;">:</td><td><div></div></td></tr><tr><td style="font-weight:bold;vertical-align:top;">path</td><td style="vertical-align:top;">:</td><td><div></div></td></tr><tr><td style="font-weight:bold;vertical-align:top;">secure</td><td style="vertical-align:top;">:</td><td><div></div></td></tr><tr><td style="font-weight:bold;vertical-align:top;">version</td><td style="vertical-align:top;">:</td><td><div></div></td></tr></table></div></td></tr><tr><td style="font-weight:bold;vertical-align:top;">session_id_brainchaco</td><td style="vertical-align:top;">:</td><td><div>127.0.0.1-b0c6dea5-560b-4cc8-9482-36ecce045d29<table><tr><td style="font-weight:bold;vertical-align:top;">comment</td><td style="vertical-align:top;">:</td><td><div></div></td></tr><tr><td style="font-weight:bold;vertical-align:top;">domain</td><td style="vertical-align:top;">:</td><td><div></div></td></tr><tr><td style="font-weight:bold;vertical-align:top;">expires</td><td style="vertical-align:top;">:</td><td><div></div></td></tr><tr><td style="font-weight:bold;vertical-align:top;">httponly</td><td style="vertical-align:top;">:</td><td><div></div></td></tr><tr><td style="font-weight:bold;vertical-align:top;">max-age</td><td style="vertical-align:top;">:</td><td><div></div></td></tr><tr><td style="font-weight:bold;vertical-align:top;">path</td><td style="vertical-align:top;">:</td><td><div></div></td></tr><tr><td style="font-weight:bold;vertical-align:top;">secure</td><td style="vertical-align:top;">:</td><td><div></div></td></tr><tr><td style="font-weight:bold;vertical-align:top;">version</td><td style="vertical-align:top;">:</td><td><div></div></td></tr></table></div></td></tr><tr><td style="font-weight:bold;vertical-align:top;">session_id_welcome</td><td style="vertical-align:top;">:</td><td><div>127.0.0.1-454c7645-9618-4e03-b242-414e0720f5f6<table><tr><td style="font-weight:bold;vertical-align:top;">comment</td><td style="vertical-align:top;">:</td><td><div></div></td></tr><tr><td style="font-weight:bold;vertical-align:top;">domain</td><td style="vertical-align:top;">:</td><td><div></div></td></tr><tr><td style="font-weight:bold;vertical-align:top;">expires</td><td style="vertical-align:top;">:</td><td><div></div></td></tr><tr><td style="font-weight:bold;vertical-align:top;">httponly</td><td style="vertical-align:top;">:</td><td><div></div></td></tr><tr><td style="font-weight:bold;vertical-align:top;">max-age</td><td style="vertical-align:top;">:</td><td><div></div></td></tr><tr><td style="font-weight:bold;vertical-align:top;">path</td><td style="vertical-align:top;">:</td><td><div></div></td></tr><tr><td style="font-weight:bold;vertical-align:top;">secure</td><td style="vertical-align:top;">:</td><td><div></div></td></tr><tr><td style="font-weight:bold;vertical-align:top;">version</td><td style="vertical-align:top;">:</td><td><div></div></td></tr></table></div></td></tr></table></div></td></tr><tr><td style="font-weight:bold;vertical-align:top;">env</td><td style="vertical-align:top;">:</td><td><div><table><tr><td style="font-weight:bold;vertical-align:top;">CONTENT_LENGTH</td><td style="vertical-align:top;">:</td><td><div>49</div></td></tr><tr><td style="font-weight:bold;vertical-align:top;">CONTENT_TYPE</td><td style="vertical-align:top;">:</td><td><div>application/x-www-form-urlencoded</div></td></tr><tr><td style="font-weight:bold;vertical-align:top;">HTTP_ACCEPT</td><td style="vertical-align:top;">:</td><td><div>text/html,application/xhtml+xml,application/xml;q=0.9,image/webp,*/*;q=0.8</div></td></tr><tr><td style="font-weight:bold;vertical-align:top;">HTTP_ACCEPT_ENCODING</td><td style="vertical-align:top;">:</td><td><div>gzip, deflate</div></td></tr><tr><td style="font-weight:bold;vertical-align:top;">HTTP_ACCEPT_LANGUAGE</td><td style="vertical-align:top;">:</td><td><div>es-ES,es;q=0.8</div></td></tr><tr><td style="font-weight:bold;vertical-align:top;">HTTP_CACHE_CONTROL</td><td style="vertical-align:top;">:</td><td><div>max-age=0</div></td></tr><tr><td style="font-weight:bold;vertical-align:top;">HTTP_CONNECTION</td><td style="vertical-align:top;">:</td><td><div>keep-alive</div></td></tr><tr><td style="font-weight:bold;vertical-align:top;">HTTP_CONTENT_LENGTH</td><td style="vertical-align:top;">:</td><td><div>49</div></td></tr><tr><td style="font-weight:bold;vertical-align:top;">HTTP_CONTENT_TYPE</td><td style="vertical-align:top;">:</td><td><div>application/x-www-form-urlencoded</div></td></tr><tr><td style="font-weight:bold;vertical-align:top;">HTTP_COOKIE</td><td style="vertical-align:top;">:</td><td><div>__utma=96992031.23818007.1465521062.1465521062.1465521062.1; __utmz=96992031.1465521062.1.1.utmcsr=(direct)|utmccn=(direct)|utmcmd=(none); session_id_welcome=127.0.0.1-454c7645-9618-4e03-b242-414e0720f5f6; session_id_admin=127.0.0.1-fbd4b772-68c9-4d1c-ab1b-de9fe3482d37; session_id_brainchaco=127.0.0.1-b0c6dea5-560b-4cc8-9482-36ecce045d29</div></td></tr><tr><td style="font-weight:bold;vertical-align:top;">HTTP_HOST</td><td style="vertical-align:top;">:</td><td><div>127.0.0.1:8000</div></td></tr><tr><td style="font-weight:bold;vertical-align:top;">HTTP_ORIGIN</td><td style="vertical-align:top;">:</td><td><div>http://127.0.0.1:8000</div></td></tr><tr><td style="font-weight:bold;vertical-align:top;">HTTP_REFERER</td><td style="vertical-align:top;">:</td><td><div>http://127.0.0.1:8000/BrainChaco/JugadorController/registro</div></td></tr><tr><td style="font-weight:bold;vertical-align:top;">HTTP_UPGRADE_INSECURE_REQUESTS</td><td style="vertical-align:top;">:</td><td><div>1</div></td></tr><tr><td style="font-weight:bold;vertical-align:top;">HTTP_USER_AGENT</td><td style="vertical-align:top;">:</td><td><div>Mozilla/5.0 (Windows NT 6.1; WOW64) AppleWebKit/537.36 (KHTML, like Gecko) Chrome/51.0.2704.103 Safari/537.36</div></td></tr><tr><td style="font-weight:bold;vertical-align:top;">PATH_INFO</td><td style="vertical-align:top;">:</td><td><div>/BrainChaco/JugadorController/registroCompleto</div></td></tr><tr><td style="font-weight:bold;vertical-align:top;">QUERY_STRING</td><td style="vertical-align:top;">:</td><td><div></div></td></tr><tr><td style="font-weight:bold;vertical-align:top;">REMOTE_ADDR</td><td style="vertical-align:top;">:</td><td><div>127.0.0.1</div></td></tr><tr><td style="font-weight:bold;vertical-align:top;">REMOTE_PORT</td><td style="vertical-align:top;">:</td><td><div>1949</div></td></tr><tr><td style="font-weight:bold;vertical-align:top;">REQUEST_METHOD</td><td style="vertical-align:top;">:</td><td><div>POST</div></td></tr><tr><td style="font-weight:bold;vertical-align:top;">SCRIPT_NAME</td><td style="vertical-align:top;">:</td><td><div></div></td></tr><tr><td style="font-weight:bold;vertical-align:top;">SERVER_NAME</td><td style="vertical-align:top;">:</td><td><div>Notebook-PC</div></td></tr><tr><td style="font-weight:bold;vertical-align:top;">SERVER_PORT</td><td style="vertical-align:top;">:</td><td><div>8000</div></td></tr><tr><td style="font-weight:bold;vertical-align:top;">SERVER_PROTOCOL</td><td style="vertical-align:top;">:</td><td><div>HTTP/1.1</div></td></tr><tr><td style="font-weight:bold;vertical-align:top;">SERVER_SOFTWARE</td><td style="vertical-align:top;">:</td><td><div>Rocket 1.2.6</div></td></tr><tr><td style="font-weight:bold;vertical-align:top;">app_folders</td><td style="vertical-align:top;">:</td><td><div>set([&#x27;D:\\\\web2py\\\\applications\\\\admin\\\\&#x27;, &#x27;D:\\\\web2py\\\\applications\\\\welcome\\\\&#x27;, &#x27;D:\\\\web2py\\\\applications\\\\BrainChaco\\\\&#x27;])</div></td></tr><tr><td style="font-weight:bold;vertical-align:top;">applications_parent</td><td style="vertical-align:top;">:</td><td><div>D:\\web2py</div></td></tr><tr><td style="font-weight:bold;vertical-align:top;">cmd_args</td><td style="vertical-align:top;">:</td><td><div><table></table></div></td></tr><tr><td style="font-weight:bold;vertical-align:top;">cmd_options</td><td style="vertical-align:top;">:</td><td><div>&lt;Values at 0x30d0f08: {&#x27;verbose&#x27;: False, &#x27;ip&#x27;: &#x27;127.0.0.1&#x27;, &#x27;debuglevel&#x27;: 30, &#x27;with_scheduler&#x27;: False, &#x27;shutdown_timeout&#x27;: 5, &#x27;taskbar&#x27;: False, &#x27;with_coverage&#x27;: False, &#x27;pid_filename&#x27;: &#x27;httpserver.pid&#x27;, &#x27;maxthreads&#x27;: None, &#x27;softcron&#x27;: False, &#x27;server_name&#x27;: &#x27;Notebook-PC&#x27;, &#x27;bpython&#x27;: False, &#x27;nogui&#x27;: False, &#x27;port&#x27;: 8000, &#x27;print_errors&#x27;: False, &#x27;extcron&#x27;: False, &#x27;runcron&#x27;: False, &#x27;run_system_tests&#x27;: False, &#x27;test&#x27;: None, &#x27;folder&#x27;: &#x27;D:\\\\web2py&#x27;, &#x27;config&#x27;: &#x27;&#x27;, &#x27;minthreads&#x27;: None, &#x27;shell&#x27;: None, &#x27;run&#x27;: &#x27;&#x27;, &#x27;log_filename&#x27;: &#x27;httpserver.log&#x27;, &#x27;profiler_dir&#x27;: None, &#x27;args&#x27;: [&#x27;&#x27;], &#x27;socket_timeout&#x27;: 5, &#x27;ssl_ca_certificate&#x27;: None, &#x27;scheduler&#x27;: None, &#x27;interfaces&#x27;: None, &#x27;ssl_private_key&#x27;: &#x27;&#x27;, &#x27;gae&#x27;: None, &#x27;password&#x27;: &#x27;******&#x27;, &#x27;request_queue_size&#x27;: 5, &#x27;ssl_certificate&#x27;: &#x27;&#x27;, &#x27;cronjob&#x27;: False, &#x27;numthreads&#x27;: None, &#x27;quiet&#x27;: False, &#x27;import_models&#x27;: False, &#x27;timeout&#x27;: 10, &#x27;plain&#x27;: False, &#x27;nobanner&#x27;: False}&gt;</div></td></tr><tr><td style="font-weight:bold;vertical-align:top;">content_length</td><td style="vertical-align:top;">:</td><td><div>49</div></td></tr><tr><td style="font-weight:bold;vertical-align:top;">content_type</td><td style="vertical-align:top;">:</td><td><div>application/x-www-form-urlencoded</div></td></tr><tr><td style="font-weight:bold;vertical-align:top;">db_sessions</td><td style="vertical-align:top;">:</td><td><div>set([])</div></td></tr><tr><td style="font-weight:bold;vertical-align:top;">debugging</td><td style="vertical-align:top;">:</td><td><div>False</div></td></tr><tr><td style="font-weight:bold;vertical-align:top;">gluon_parent</td><td style="vertical-align:top;">:</td><td><div>D:\\web2py</div></td></tr><tr><td style="font-weight:bold;vertical-align:top;">http_accept</td><td style="vertical-align:top;">:</td><td><div>text/html,application/xhtml+xml,application/xml;q=0.9,image/webp,*/*;q=0.8</div></td></tr><tr><td style="font-weight:bold;vertical-align:top;">http_accept_encoding</td><td style="vertical-align:top;">:</td><td><div>gzip, deflate</div></td></tr><tr><td style="font-weight:bold;vertical-align:top;">http_accept_language</td><td style="vertical-align:top;">:</td><td><div>es-ES,es;q=0.8</div></td></tr><tr><td style="font-weight:bold;vertical-align:top;">http_cache_control</td><td style="vertical-align:top;">:</td><td><div>max-age=0</div></td></tr><tr><td style="font-weight:bold;vertical-align:top;">http_connection</td><td style="vertical-align:top;">:</td><td><div>keep-alive</div></td></tr><tr><td style="font-weight:bold;vertical-align:top;">http_content_length</td><td style="vertical-align:top;">:</td><td><div>49</div></td></tr><tr><td style="font-weight:bold;vertical-align:top;">http_content_type</td><td style="vertical-align:top;">:</td><td><div>application/x-www-form-urlencoded</div></td></tr><tr><td style="font-weight:bold;vertical-align:top;">http_cookie</td><td style="vertical-align:top;">:</td><td><div>__utma=96992031.23818007.1465521062.1465521062.1465521062.1; __utmz=96992031.1465521062.1.1.utmcsr=(direct)|utmccn=(direct)|utmcmd=(none); session_id_welcome=127.0.0.1-454c7645-9618-4e03-b242-414e0720f5f6; session_id_admin=127.0.0.1-fbd4b772-68c9-4d1c-ab1b-de9fe3482d37; session_id_brainchaco=127.0.0.1-b0c6dea5-560b-4cc8-9482-36ecce045d29</div></td></tr><tr><td style="font-weight:bold;vertical-align:top;">http_host</td><td style="vertical-align:top;">:</td><td><div>127.0.0.1:8000</div></td></tr><tr><td style="font-weight:bold;vertical-align:top;">http_origin</td><td style="vertical-align:top;">:</td><td><div>http://127.0.0.1:8000</div></td></tr><tr><td style="font-weight:bold;vertical-align:top;">http_referer</td><td style="vertical-align:top;">:</td><td><div>http://127.0.0.1:8000/BrainChaco/JugadorController/registro</div></td></tr><tr><td style="font-weight:bold;vertical-align:top;">http_upgrade_insecure_requests</td><td style="vertical-align:top;">:</td><td><div>1</div></td></tr><tr><td style="font-weight:bold;vertical-align:top;">http_user_agent</td><td style="vertical-align:top;">:</td><td><div>Mozilla/5.0 (Windows NT 6.1; WOW64) AppleWebKit/537.36 (KHTML, like Gecko) Chrome/51.0.2704.103 Safari/537.36</div></td></tr><tr><td style="font-weight:bold;vertical-align:top;">is_jython</td><td style="vertical-align:top;">:</td><td><div>False</div></td></tr><tr><td style="font-weight:bold;vertical-align:top;">is_pypy</td><td style="vertical-align:top;">:</td><td><div>False</div></td></tr><tr><td style="font-weight:bold;vertical-align:top;">is_source</td><td style="vertical-align:top;">:</td><td><div>False</div></td></tr><tr><td style="font-weight:bold;vertical-align:top;">local_hosts</td><td style="vertical-align:top;">:</td><td><div><table><tr><td><div>Notebook-PC</div></td></tr><tr><td><div>::ffff:127.0.0.1</div></td></tr><tr><td><div>::1</div></td></tr><tr><td><div>fe80::8c8d:67ee:cd4e:f037%14</div></td></tr><tr><td><div>192.168.0.18</div></td></tr><tr><td><div>127.0.0.1</div></td></tr></table></div></td></tr><tr><td style="font-weight:bold;vertical-align:top;">path_info</td><td style="vertical-align:top;">:</td><td><div>/BrainChaco/JugadorController/registroCompleto</div></td></tr><tr><td style="font-weight:bold;vertical-align:top;">query_string</td><td style="vertical-align:top;">:</td><td><div></div></td></tr><tr><td style="font-weight:bold;vertical-align:top;">remote_addr</td><td style="vertical-align:top;">:</td><td><div>127.0.0.1</div></td></tr><tr><td style="font-weight:bold;vertical-align:top;">remote_port</td><td style="vertical-align:top;">:</td><td><div>1949</div></td></tr><tr><td style="font-weight:bold;vertical-align:top;">request_method</td><td style="vertical-align:top;">:</td><td><div>POST</div></td></tr><tr><td style="font-weight:bold;vertical-align:top;">request_uri</td><td style="vertical-align:top;">:</td><td><div>/BrainChaco/JugadorController/registroCompleto</div></td></tr><tr><td style="font-weight:bold;vertical-align:top;">script_name</td><td style="vertical-align:top;">:</td><td><div></div></td></tr><tr><td style="font-weight:bold;vertical-align:top;">server_name</td><td style="vertical-align:top;">:</td><td><div>Notebook-PC</div></td></tr><tr><td style="font-weight:bold;vertical-align:top;">server_port</td><td style="vertical-align:top;">:</td><td><div>8000</div></td></tr><tr><td style="font-weight:bold;vertical-align:top;">server_protocol</td><td style="vertical-align:top;">:</td><td><div>HTTP/1.1</div></td></tr><tr><td style="font-weight:bold;vertical-align:top;">server_software</td><td style="vertical-align:top;">:</td><td><div>Rocket 1.2.6</div></td></tr><tr><td style="font-weight:bold;vertical-align:top;">web2py_path</td><td style="vertical-align:top;">:</td><td><div>D:\\web2py</div></td></tr><tr><td style="font-weight:bold;vertical-align:top;">web2py_version</td><td style="vertical-align:top;">:</td><td><div>2.14.6-stable+timestamp.2016.05.10.00.21.47</div></td></tr><tr><td style="font-weight:bold;vertical-align:top;">wsgi.errors</td><td style="vertical-align:top;">:</td><td><div>&lt;open file &#x27;&lt;stderr&gt;&#x27;, mode &#x27;w&#x27; at 0x01D7D0D0&gt;</div></td></tr><tr><td style="font-weight:bold;vertical-align:top;">wsgi.file_wrapper</td><td style="vertical-align:top;">:</td><td><div>&lt;class wsgiref.util.FileWrapper at 0x02D9B420&gt;</div></td></tr><tr><td style="font-weight:bold;vertical-align:top;">wsgi.input</td><td style="vertical-align:top;">:</td><td><div>&lt;socket._fileobject object at 0x03E397F0&gt;</div></td></tr><tr><td style="font-weight:bold;vertical-align:top;">wsgi.multiprocess</td><td style="vertical-align:top;">:</td><td><div>False</div></td></tr><tr><td style="font-weight:bold;vertical-align:top;">wsgi.multithread</td><td style="vertical-align:top;">:</td><td><div>True</div></td></tr><tr><td style="font-weight:bold;vertical-align:top;">wsgi.run_once</td><td style="vertical-align:top;">:</td><td><div>False</div></td></tr><tr><td style="font-weight:bold;vertical-align:top;">wsgi.url_scheme</td><td style="vertical-align:top;">:</td><td><div>http</div></td></tr><tr><td style="font-weight:bold;vertical-align:top;">wsgi.version</td><td style="vertical-align:top;">:</td><td><div><table><tr><td><div>1</div></td></tr><tr><td><div>0</div></td></tr></table></div></td></tr><tr><td style="font-weight:bold;vertical-align:top;">wsgi_errors</td><td style="vertical-align:top;">:</td><td><div>&lt;open file &#x27;&lt;stderr&gt;&#x27;, mode &#x27;w&#x27; at 0x01D7D0D0&gt;</div></td></tr><tr><td style="font-weight:bold;vertical-align:top;">wsgi_file_wrapper</td><td style="vertical-align:top;">:</td><td><div>&lt;class wsgiref.util.FileWrapper at 0x02D9B420&gt;</div></td></tr><tr><td style="font-weight:bold;vertical-align:top;">wsgi_input</td><td style="vertical-align:top;">:</td><td><div>&lt;socket._fileobject object at 0x03E397F0&gt;</div></td></tr><tr><td style="font-weight:bold;vertical-align:top;">wsgi_multiprocess</td><td style="vertical-align:top;">:</td><td><div>False</div></td></tr><tr><td style="font-weight:bold;vertical-align:top;">wsgi_multithread</td><td style="vertical-align:top;">:</td><td><div>True</div></td></tr><tr><td style="font-weight:bold;vertical-align:top;">wsgi_run_once</td><td style="vertical-align:top;">:</td><td><div>False</div></td></tr><tr><td style="font-weight:bold;vertical-align:top;">wsgi_url_scheme</td><td style="vertical-align:top;">:</td><td><div>http</div></td></tr><tr><td style="font-weight:bold;vertical-align:top;">wsgi_version</td><td style="vertical-align:top;">:</td><td><div><table><tr><td><div>1</div></td></tr><tr><td><div>0</div></td></tr></table></div></td></tr></table></div></td></tr><tr><td style="font-weight:bold;vertical-align:top;">extension</td><td style="vertical-align:top;">:</td><td><div>html</div></td></tr><tr><td style="font-weight:bold;vertical-align:top;">folder</td><td style="vertical-align:top;">:</td><td><div>D:\\web2py\\applications\\BrainChaco\\</div></td></tr><tr><td style="font-weight:bold;vertical-align:top;">function</td><td style="vertical-align:top;">:</td><td><div>registroCompleto</div></td></tr><tr><td style="font-weight:bold;vertical-align:top;">global_settings</td><td style="vertical-align:top;">:</td><td><div><table><tr><td style="font-weight:bold;vertical-align:top;">app_folders</td><td style="vertical-align:top;">:</td><td><div>set([&#x27;D:\\\\web2py\\\\applications\\\\admin\\\\&#x27;, &#x27;D:\\\\web2py\\\\applications\\\\welcome\\\\&#x27;, &#x27;D:\\\\web2py\\\\applications\\\\BrainChaco\\\\&#x27;])</div></td></tr><tr><td style="font-weight:bold;vertical-align:top;">applications_parent</td><td style="vertical-align:top;">:</td><td><div>D:\\web2py</div></td></tr><tr><td style="font-weight:bold;vertical-align:top;">cmd_args</td><td style="vertical-align:top;">:</td><td><div><table></table></div></td></tr><tr><td style="font-weight:bold;vertical-align:top;">cmd_options</td><td style="vertical-align:top;">:</td><td><div>&lt;Values at 0x30d0f08: {&#x27;verbose&#x27;: False, &#x27;ip&#x27;: &#x27;127.0.0.1&#x27;, &#x27;debuglevel&#x27;: 30, &#x27;with_scheduler&#x27;: False, &#x27;shutdown_timeout&#x27;: 5, &#x27;taskbar&#x27;: False, &#x27;with_coverage&#x27;: False, &#x27;pid_filename&#x27;: &#x27;httpserver.pid&#x27;, &#x27;maxthreads&#x27;: None, &#x27;softcron&#x27;: False, &#x27;server_name&#x27;: &#x27;Notebook-PC&#x27;, &#x27;bpython&#x27;: False, &#x27;nogui&#x27;: False, &#x27;port&#x27;: 8000, &#x27;print_errors&#x27;: False, &#x27;extcron&#x27;: False, &#x27;runcron&#x27;: False, &#x27;run_system_tests&#x27;: False, &#x27;test&#x27;: None, &#x27;folder&#x27;: &#x27;D:\\\\web2py&#x27;, &#x27;config&#x27;: &#x27;&#x27;, &#x27;minthreads&#x27;: None, &#x27;shell&#x27;: None, &#x27;run&#x27;: &#x27;&#x27;, &#x27;log_filename&#x27;: &#x27;httpserver.log&#x27;, &#x27;profiler_dir&#x27;: None, &#x27;args&#x27;: [&#x27;&#x27;], &#x27;socket_timeout&#x27;: 5, &#x27;ssl_ca_certificate&#x27;: None, &#x27;scheduler&#x27;: None, &#x27;interfaces&#x27;: None, &#x27;ssl_private_key&#x27;: &#x27;&#x27;, &#x27;gae&#x27;: None, &#x27;password&#x27;: &#x27;******&#x27;, &#x27;request_queue_size&#x27;: 5, &#x27;ssl_certificate&#x27;: &#x27;&#x27;, &#x27;cronjob&#x27;: False, &#x27;numthreads&#x27;: None, &#x27;quiet&#x27;: False, &#x27;import_models&#x27;: False, &#x27;timeout&#x27;: 10, &#x27;plain&#x27;: False, &#x27;nobanner&#x27;: False}&gt;</div></td></tr><tr><td style="font-weight:bold;vertical-align:top;">db_sessions</td><td style="vertical-align:top;">:</td><td><div>set([])</div></td></tr><tr><td style="font-weight:bold;vertical-align:top;">debugging</td><td style="vertical-align:top;">:</td><td><div>False</div></td></tr><tr><td style="font-weight:bold;vertical-align:top;">gluon_parent</td><td style="vertical-align:top;">:</td><td><div>D:\\web2py</div></td></tr><tr><td style="font-weight:bold;vertical-align:top;">is_jython</td><td style="vertical-align:top;">:</td><td><div>False</div></td></tr><tr><td style="font-weight:bold;vertical-align:top;">is_pypy</td><td style="vertical-align:top;">:</td><td><div>False</div></td></tr><tr><td style="font-weight:bold;vertical-align:top;">is_source</td><td style="vertical-align:top;">:</td><td><div>False</div></td></tr><tr><td style="font-weight:bold;vertical-align:top;">local_hosts</td><td style="vertical-align:top;">:</td><td><div><table><tr><td><div>Notebook-PC</div></td></tr><tr><td><div>::ffff:127.0.0.1</div></td></tr><tr><td><div>::1</div></td></tr><tr><td><div>fe80::8c8d:67ee:cd4e:f037%14</div></td></tr><tr><td><div>192.168.0.18</div></td></tr><tr><td><div>127.0.0.1</div></td></tr></table></div></td></tr><tr><td style="font-weight:bold;vertical-align:top;">web2py_version</td><td style="vertical-align:top;">:</td><td><div>2.14.6-stable+timestamp.2016.05.10.00.21.47</div></td></tr></table></div></td></tr><tr><td style="font-weight:bold;vertical-align:top;">is_https</td><td style="vertical-align:top;">:</td><td><div>False</div></td></tr><tr><td style="font-weight:bold;vertical-align:top;">is_local</td><td style="vertical-align:top;">:</td><td><div>True</div></td></tr><tr><td style="font-weight:bold;vertical-align:top;">is_restful</td><td style="vertical-align:top;">:</td><td><div>False</div></td></tr><tr><td style="font-weight:bold;vertical-align:top;">is_scheduler</td><td style="vertical-align:top;">:</td><td><div>False</div></td></tr><tr><td style="font-weight:bold;vertical-align:top;">is_shell</td><td style="vertical-align:top;">:</td><td><div>False</div></td></tr><tr><td style="font-weight:bold;vertical-align:top;">now</td><td style="vertical-align:top;">:</td><td><div>datetime.datetime(2016, 6, 26, 13, 6, 10, 512000)</div></td></tr><tr><td style="font-weight:bold;vertical-align:top;">raw_args</td><td style="vertical-align:top;">:</td><td><div></div></td></tr><tr><td style="font-weight:bold;vertical-align:top;">raw_extension</td><td style="vertical-align:top;">:</td><td><div>None</div></td></tr><tr><td style="font-weight:bold;vertical-align:top;">url</td><td style="vertical-align:top;">:</td><td><div>/BrainChaco/JugadorController/registroCompleto</div></td></tr><tr><td style="font-weight:bold;vertical-align:top;">utcnow</td><td style="vertical-align:top;">:</td><td><div>datetime.datetime(2016, 6, 26, 16, 6, 10, 512000)</div></td></tr><tr><td style="font-weight:bold;vertical-align:top;">wsgi</td><td style="vertical-align:top;">:</td><td><div>&lt;gluon.main.LazyWSGI object at 0x0414C0D0&gt;</div></td></tr></table></div>'
tRp58
sS'frames'
p59
(lp60
(dp61
S'file'
p62
S'D:\\web2py\\gluon\\restricted.py'
p63
sS'dump'
p64
(dp65
S'environment'
p66
S"{'A': <class 'gluon.html.A'>, 'ANY_OF': <class 'gluon.validators.ANY_OF'>, 'ASSIGNJS': <function ASSIGNJS>, 'AppConfig': <function AppConfig>, 'Auth': <class 'gluon.tools.Auth'>, 'B': <class 'gluon.html.B'>, 'BEAUTIFY': <class 'gluon.html.BEAUTIFY'>, 'BODY': <class 'gluon.html.BODY'>, 'BR': <class 'gluon.html.BR'>, 'BUTTON': <class 'gluon.html.BUTTON'>, ...}"
p67
sS'ccode'
p68
S'<code object <module> at 0399A9F8, file "D:\\web2...nChaco\\controllers/JugadorController.py", line 3>'
p69
ssS'lnum'
p70
I227
sS'lines'
p71
(dp72
I224
S'            ccode = code'
p73
sI225
S'        else:'
p74
sI226
S'            ccode = compile2(code, layer)'
p75
sI227
S'        exec ccode in environment'
p76
sI228
S'    except HTTP:'
p77
sI229
S'        raise'
p78
sI230
S'    except RestrictedError:'
p79
sI231
S'        # do not encapsulate (obfuscate) the original RestrictedError'
p80
sI222
S'    try:'
p81
sI223
S'        if isinstance(code, types.CodeType):'
p82
ssS'call'
p83
S"(code='# -*- coding: utf-8 -*-\\n# intente algo como\\nimpo...esponse._vars=response._caller(registroCompleto)\\n', environment={'A': <class 'gluon.html.A'>, 'ANY_OF': <class 'gluon.validators.ANY_OF'>, 'ASSIGNJS': <function ASSIGNJS>, 'AppConfig': <function AppConfig>, 'Auth': <class 'gluon.tools.Auth'>, 'B': <class 'gluon.html.B'>, 'BEAUTIFY': <class 'gluon.html.BEAUTIFY'>, 'BODY': <class 'gluon.html.BODY'>, 'BR': <class 'gluon.html.BR'>, 'BUTTON': <class 'gluon.html.BUTTON'>, ...}, layer=r'D:\\web2py\\applications\\BrainChaco\\controllers/JugadorController.py')"
p84
sS'func'
p85
S'restricted'
p86
sa(dp87
g62
S'D:\\web2py\\applications\\BrainChaco\\controllers\\JugadorController.py'
p88
sg64
(dp89
sg70
I81
sg71
(dp90
I71
S'\t\tmail.send(to=[send_test_to],'
p91
sI72
S"            subject='Recuperar Contrase\xc3\xb1a',"
p92
sI73
S''
sI74
S"            message='Su contrase\xc3\xb1a es: ' + contra)"
p93
sI75
S"\t\treturn dict(nombre='',Error='',LError='',LNom='',LPsw='')"
p94
sI76
S''
sI77
S'def cerrar():'
p95
sI78
S'\tsession.jugador=None'
p96
sI79
S"\tredirect(URL('HomeController'))"
p97
sI80
S'\treturn dict()'
p98
ssg83
S'()'
p99
sg85
S'<module>'
p100
sa(dp101
g62
S'D:\\web2py\\gluon\\globals.py'
p102
sg64
(dp103
S'self'
p104
S'undefined'
p105
sS'f'
S'<function registroCompleto>'
p106
ssg70
I417
sg71
(dp107
I416
S'        self._vars = None'
p108
sI417
S'        self._caller = lambda f: f()'
p109
sI418
S'        self._view_environment = None'
p110
sI419
S'        self._custom_commit = None'
p111
sI420
S'        self._custom_rollback = None'
p112
sI421
S"        self.generic_patterns = ['*']"
p113
sI412
S"        self.flash = ''            # used by the default view layout"
p114
sI413
S'        self.meta = Storage()      # used by web2py_ajax.html'
p115
sI414
S'        self.menu = []             # used by the default view layout'
p116
sI415
S'        self.files = []            # used by web2py_ajax.html'
p117
ssg83
S'(f=<function registroCompleto>)'
p118
sg85
S'<lambda>'
p119
sa(dp120
g62
S'D:\\web2py\\applications\\BrainChaco\\controllers\\JugadorController.py'
p121
sg64
(dp122
S'form.Nom'
p123
S"'Facundo'"
p124
sS'form'
p125
S"<Storage {'Nom': 'Facundo', 'Pas': '123', 'Eml': 'facundomierez@gmail.com'}>"
p126
sS').select'
p127
g105
sS'db.usuario'
p128
g105
sS'nick'
p129
g105
sS'global db'
p130
S'<DAL uri="mysql://root:@localhost/brainchaco">'
p131
ssg70
I28
sg71
(dp132
I32
S'\t\tresponse.view = "JugadorController/registro.html"'
p133
sI23
S'    response.view = "JugadorController/registro.html"'
p134
sI24
S"    return dict(nombre='',email='',psw='',Error='',EError='')"
p135
sI25
S''
sI26
S'def registroCompleto():'
p136
sI27
S'\tform = request.post_vars'
p137
sI28
S'\tnick = db(db.usuario.nombre == form.Nom).select()'
p138
sI29
S'\tcorr = db(db.usuario.correo == form.Eml).select()'
p139
sI30
S'\tif (len(nick) == 0) and (len(corr) == 0):'
p140
sI31
S'\t\tdb.usuario.insert(nombre=form.Nom,correo=form.Eml,password=form.Pas)'
p141
ssg83
S'()'
p142
sg85
S'registroCompleto'
p143
sa(dp144
g62
S'D:\\web2py\\gluon\\packages\\dal\\pydal\\base.py'
p145
sg64
(dp146
S'global BasicStorage'
p147
S"<class 'pydal.helpers.classes.BasicStorage'>"
p148
sS'self'
p149
S'<DAL uri="mysql://root:@localhost/brainchaco">'
p150
sS'BasicStorage.__getattribute__'
p151
S"<slot wrapper '__getattribute__' of 'object' objects>"
p152
sS'key'
p153
S"'usuario'"
p154
ssg70
I921
sg71
(dp155
I916
S'    def __getattr__(self, key):'
p156
sI917
S"        if object.__getattribute__(self, '_lazy_tables') and \\"
p157
sI918
S"                key in object.__getattribute__(self, '_LAZY_TABLES'):"
p158
sI919
S'            tablename, fields, args = self._LAZY_TABLES.pop(key)'
p159
sI920
S'            return self.lazy_define_table(tablename, *fields, **args)'
p160
sI921
S'        return BasicStorage.__getattribute__(self, key)'
p161
sI922
S''
sI923
S'    def __setattr__(self, key, value):'
p162
sI924
S"        if key[:1] != '_' and key in self:"
p163
sI925
S'            raise SyntaxError('
p164
ssg83
S'(self=<DAL uri="mysql://root:@localhost/brainchaco">, key=\'usuario\')'
p165
sg85
S'__getattr__'
p166
sasS'pyver'
p167
S'Python 2.7.9: D:\\web2py\\web2py.exe (prefix: )'
p168
sS'session'
p169
g57
(S's\xa2\x01\x00\x00<div><table><tr><td style="font-weight:bold;vertical-align:top;">jugador</td><td style="vertical-align:top;">:</td><td><div>None</div></td></tr><tr><td style="font-weight:bold;vertical-align:top;">nomJugador</td><td style="vertical-align:top;">:</td><td><div></div></td></tr><tr><td style="font-weight:bold;vertical-align:top;">puntaje</td><td style="vertical-align:top;">:</td><td><div>0</div></td></tr></table></div>'
tRp170
sS'etype'
p171
S"<type 'exceptions.AttributeError'>"
p172
sS'date'
p173
S'Sun Jun 26 13:06:10 2016'
p174
sS'response'
p175
g57
(S's,@\x00\x00<div><table><tr><td style="font-weight:bold;vertical-align:top;">body</td><td style="vertical-align:top;">:</td><td><div>&lt;cStringIO.StringO object at 0x0414CD20&gt;</div></td></tr><tr><td style="font-weight:bold;vertical-align:top;">cookies</td><td style="vertical-align:top;">:</td><td><div><table><tr><td style="font-weight:bold;vertical-align:top;">session_id_brainchaco</td><td style="vertical-align:top;">:</td><td><div>127.0.0.1-b0c6dea5-560b-4cc8-9482-36ecce045d29<table><tr><td style="font-weight:bold;vertical-align:top;">comment</td><td style="vertical-align:top;">:</td><td><div></div></td></tr><tr><td style="font-weight:bold;vertical-align:top;">domain</td><td style="vertical-align:top;">:</td><td><div></div></td></tr><tr><td style="font-weight:bold;vertical-align:top;">expires</td><td style="vertical-align:top;">:</td><td><div></div></td></tr><tr><td style="font-weight:bold;vertical-align:top;">httponly</td><td style="vertical-align:top;">:</td><td><div></div></td></tr><tr><td style="font-weight:bold;vertical-align:top;">max-age</td><td style="vertical-align:top;">:</td><td><div></div></td></tr><tr><td style="font-weight:bold;vertical-align:top;">path</td><td style="vertical-align:top;">:</td><td><div>/</div></td></tr><tr><td style="font-weight:bold;vertical-align:top;">secure</td><td style="vertical-align:top;">:</td><td><div></div></td></tr><tr><td style="font-weight:bold;vertical-align:top;">version</td><td style="vertical-align:top;">:</td><td><div></div></td></tr></table></div></td></tr></table></div></td></tr><tr><td style="font-weight:bold;vertical-align:top;">delimiters</td><td style="vertical-align:top;">:</td><td><div><table><tr><td><div>{{</div></td></tr><tr><td><div>}}</div></td></tr></table></div></td></tr><tr><td style="font-weight:bold;vertical-align:top;">files</td><td style="vertical-align:top;">:</td><td><div><table></table></div></td></tr><tr><td style="font-weight:bold;vertical-align:top;">flash</td><td style="vertical-align:top;">:</td><td><div></div></td></tr><tr><td style="font-weight:bold;vertical-align:top;">form_label_separator</td><td style="vertical-align:top;">:</td><td><div></div></td></tr><tr><td style="font-weight:bold;vertical-align:top;">formstyle</td><td style="vertical-align:top;">:</td><td><div>bootstrap3_inline</div></td></tr><tr><td style="font-weight:bold;vertical-align:top;">generic_patterns</td><td style="vertical-align:top;">:</td><td><div><table><tr><td><div>*</div></td></tr></table></div></td></tr><tr><td style="font-weight:bold;vertical-align:top;">google_analytics_id</td><td style="vertical-align:top;">:</td><td><div>None</div></td></tr><tr><td style="font-weight:bold;vertical-align:top;">headers</td><td style="vertical-align:top;">:</td><td><div><table><tr><td style="font-weight:bold;vertical-align:top;">X-Powered-By</td><td style="vertical-align:top;">:</td><td><div>web2py</div></td></tr></table></div></td></tr><tr><td style="font-weight:bold;vertical-align:top;">logo</td><td style="vertical-align:top;">:</td><td><div><a class="navbar-brand" href="http://www.web2py.com/" id="web2py-logo"><b>web<span>2</span>py</b>&trade;&nbsp;</a></div></td></tr><tr><td style="font-weight:bold;vertical-align:top;">menu</td><td style="vertical-align:top;">:</td><td><div><table><tr><td><div><table><tr><td><div>Inicio</div></td></tr><tr><td><div>False</div></td></tr><tr><td><div>/BrainChaco/default/index</div></td></tr><tr><td><div><table></table></div></td></tr></table></div></td></tr><tr><td><div><table><tr><td><div>Mis Sitios</div></td></tr><tr><td><div>False</div></td></tr><tr><td><div>/admin/default/site</div></td></tr></table></div></td></tr><tr><td><div><table><tr><td><div>Esta Aplicaci\xc3\xb3n</div></td></tr><tr><td><div>False</div></td></tr><tr><td><div>#</div></td></tr><tr><td><div><table><tr><td><div><table><tr><td><div>Design</div></td></tr><tr><td><div>False</div></td></tr><tr><td><div>/admin/default/design/BrainChaco</div></td></tr></table></div></td></tr><tr><td><div><li class="divider"></li></div></td></tr><tr><td><div><table><tr><td><div>Controlador</div></td></tr><tr><td><div>False</div></td></tr><tr><td><div>/admin/default/edit/BrainChaco/controllers/JugadorController.py</div></td></tr></table></div></td></tr><tr><td><div><table><tr><td><div>Vista</div></td></tr><tr><td><div>False</div></td></tr><tr><td><div>/admin/default/edit/BrainChaco/views/JugadorController/registroCompleto.html</div></td></tr></table></div></td></tr><tr><td><div><table><tr><td><div>Modelo BDD</div></td></tr><tr><td><div>False</div></td></tr><tr><td><div>/admin/default/edit/BrainChaco/models/db.py</div></td></tr></table></div></td></tr><tr><td><div><table><tr><td><div>Modelo "menu"</div></td></tr><tr><td><div>False</div></td></tr><tr><td><div>/admin/default/edit/BrainChaco/models/menu.py</div></td></tr></table></div></td></tr><tr><td><div><table><tr><td><div>Config.ini</div></td></tr><tr><td><div>False</div></td></tr><tr><td><div>/admin/default/edit/BrainChaco/private/appconfig.ini</div></td></tr></table></div></td></tr><tr><td><div><table><tr><td><div>Dise\xc3\xb1o de p\xc3\xa1gina</div></td></tr><tr><td><div>False</div></td></tr><tr><td><div>/admin/default/edit/BrainChaco/views/layout.html</div></td></tr></table></div></td></tr><tr><td><div><table><tr><td><div>Hoja de estilo</div></td></tr><tr><td><div>False</div></td></tr><tr><td><div>/admin/default/edit/BrainChaco/static/css/web2py-bootstrap3.css</div></td></tr></table></div></td></tr><tr><td><div><table><tr><td><div>Base de datos</div></td></tr><tr><td><div>False</div></td></tr><tr><td><div>/BrainChaco/appadmin/index</div></td></tr></table></div></td></tr><tr><td><div><table><tr><td><div>Errores</div></td></tr><tr><td><div>False</div></td></tr><tr><td><div>/admin/default/errors/BrainChaco</div></td></tr></table></div></td></tr><tr><td><div><table><tr><td><div>Acerca de</div></td></tr><tr><td><div>False</div></td></tr><tr><td><div>/admin/default/about/BrainChaco</div></td></tr></table></div></td></tr></table></div></td></tr></table></div></td></tr><tr><td><div><table><tr><td><div>web2py.com</div></td></tr><tr><td><div>False</div></td></tr><tr><td><div>#</div></td></tr><tr><td><div><table><tr><td><div><table><tr><td><div>Descargas</div></td></tr><tr><td><div>False</div></td></tr><tr><td><div>http://www.web2py.com/examples/default/download</div></td></tr></table></div></td></tr><tr><td><div><table><tr><td><div>Soporte</div></td></tr><tr><td><div>False</div></td></tr><tr><td><div>http://www.web2py.com/examples/default/support</div></td></tr></table></div></td></tr><tr><td><div><table><tr><td><div>Demostraci\xc3\xb3n</div></td></tr><tr><td><div>False</div></td></tr><tr><td><div>http://web2py.com/demo_admin</div></td></tr></table></div></td></tr><tr><td><div><table><tr><td><div>Ejemplos R\xc3\xa1pidos</div></td></tr><tr><td><div>False</div></td></tr><tr><td><div>http://web2py.com/examples/default/examples</div></td></tr></table></div></td></tr><tr><td><div><table><tr><td><div>FAQ</div></td></tr><tr><td><div>False</div></td></tr><tr><td><div>http://web2py.com/AlterEgo</div></td></tr></table></div></td></tr><tr><td><div><table><tr><td><div>V\xc3\xaddeos</div></td></tr><tr><td><div>False</div></td></tr><tr><td><div>http://www.web2py.com/examples/default/videos/</div></td></tr></table></div></td></tr><tr><td><div><table><tr><td><div>Aplicaciones Libres</div></td></tr><tr><td><div>False</div></td></tr><tr><td><div>http://web2py.com/appliances</div></td></tr></table></div></td></tr><tr><td><div><table><tr><td><div>Plugins</div></td></tr><tr><td><div>False</div></td></tr><tr><td><div>http://web2py.com/plugins</div></td></tr></table></div></td></tr><tr><td><div><table><tr><td><div>Recetas</div></td></tr><tr><td><div>False</div></td></tr><tr><td><div>http://web2pyslices.com/</div></td></tr></table></div></td></tr></table></div></td></tr></table></div></td></tr><tr><td><div><table><tr><td><div>Documentaci\xc3\xb3n</div></td></tr><tr><td><div>False</div></td></tr><tr><td><div>#</div></td></tr><tr><td><div><table><tr><td><div><table><tr><td><div>Online book</div></td></tr><tr><td><div>False</div></td></tr><tr><td><div>http://www.web2py.com/book</div></td></tr></table></div></td></tr><tr><td><div><li class="divider"></li></div></td></tr><tr><td><div><table><tr><td><div>Prefacio</div></td></tr><tr><td><div>False</div></td></tr><tr><td><div>http://www.web2py.com/book/default/chapter/00</div></td></tr></table></div></td></tr><tr><td><div><table><tr><td><div>Introducci\xc3\xb3n</div></td></tr><tr><td><div>False</div></td></tr><tr><td><div>http://www.web2py.com/book/default/chapter/01</div></td></tr></table></div></td></tr><tr><td><div><table><tr><td><div>Python</div></td></tr><tr><td><div>False</div></td></tr><tr><td><div>http://www.web2py.com/book/default/chapter/02</div></td></tr></table></div></td></tr><tr><td><div><table><tr><td><div>Resumen</div></td></tr><tr><td><div>False</div></td></tr><tr><td><div>http://www.web2py.com/book/default/chapter/03</div></td></tr></table></div></td></tr><tr><td><div><table><tr><td><div>El N\xc3\xbacleo</div></td></tr><tr><td><div>False</div></td></tr><tr><td><div>http://www.web2py.com/book/default/chapter/04</div></td></tr></table></div></td></tr><tr><td><div><table><tr><td><div>Las Vistas</div></td></tr><tr><td><div>False</div></td></tr><tr><td><div>http://www.web2py.com/book/default/chapter/05</div></td></tr></table></div></td></tr><tr><td><div><table><tr><td><div>Base de datos</div></td></tr><tr><td><div>False</div></td></tr><tr><td><div>http://www.web2py.com/book/default/chapter/06</div></td></tr></table></div></td></tr><tr><td><div><table><tr><td><div>Formularios y validadores</div></td></tr><tr><td><div>False</div></td></tr><tr><td><div>http://www.web2py.com/book/default/chapter/07</div></td></tr></table></div></td></tr><tr><td><div><table><tr><td><div>Correo electr\xc3\xb3nico y SMS</div></td></tr><tr><td><div>False</div></td></tr><tr><td><div>http://www.web2py.com/book/default/chapter/08</div></td></tr></table></div></td></tr><tr><td><div><table><tr><td><div>Control de Acceso</div></td></tr><tr><td><div>False</div></td></tr><tr><td><div>http://www.web2py.com/book/default/chapter/09</div></td></tr></table></div></td></tr><tr><td><div><table><tr><td><div>Servicios</div></td></tr><tr><td><div>False</div></td></tr><tr><td><div>http://www.web2py.com/book/default/chapter/10</div></td></tr></table></div></td></tr><tr><td><div><table><tr><td><div>Recetas AJAX</div></td></tr><tr><td><div>False</div></td></tr><tr><td><div>http://www.web2py.com/book/default/chapter/11</div></td></tr></table></div></td></tr><tr><td><div><table><tr><td><div>Componentes y Plugins</div></td></tr><tr><td><div>False</div></td></tr><tr><td><div>http://www.web2py.com/book/default/chapter/12</div></td></tr></table></div></td></tr><tr><td><div><table><tr><td><div>Recetas de despliegue</div></td></tr><tr><td><div>False</div></td></tr><tr><td><div>http://www.web2py.com/book/default/chapter/13</div></td></tr></table></div></td></tr><tr><td><div><table><tr><td><div>Otras Recetas</div></td></tr><tr><td><div>False</div></td></tr><tr><td><div>http://www.web2py.com/book/default/chapter/14</div></td></tr></table></div></td></tr><tr><td><div><table><tr><td><div>Helping web2py</div></td></tr><tr><td><div>False</div></td></tr><tr><td><div>http://www.web2py.com/book/default/chapter/15</div></td></tr></table></div></td></tr><tr><td><div><table><tr><td><div>Buy web2py\'s book</div></td></tr><tr><td><div>False</div></td></tr><tr><td><div>http://stores.lulu.com/web2py</div></td></tr></table></div></td></tr></table></div></td></tr></table></div></td></tr><tr><td><div><table><tr><td><div>Comunidad</div></td></tr><tr><td><div>False</div></td></tr><tr><td><div>None</div></td></tr><tr><td><div><table><tr><td><div><table><tr><td><div>Grupos</div></td></tr><tr><td><div>False</div></td></tr><tr><td><div>http://www.web2py.com/examples/default/usergroups</div></td></tr></table></div></td></tr><tr><td><div><table><tr><td><div>Twitter</div></td></tr><tr><td><div>False</div></td></tr><tr><td><div>http://twitter.com/web2py</div></td></tr></table></div></td></tr><tr><td><div><table><tr><td><div>Chat en vivo</div></td></tr><tr><td><div>False</div></td></tr><tr><td><div>http://webchat.freenode.net/?channels=web2py</div></td></tr></table></div></td></tr></table></div></td></tr></table></div></td></tr></table></div></td></tr><tr><td style="font-weight:bold;vertical-align:top;">meta</td><td style="vertical-align:top;">:</td><td><div><table><tr><td style="font-weight:bold;vertical-align:top;">author</td><td style="vertical-align:top;">:</td><td><div>Your Name &lt;you@example.com&gt;</div></td></tr><tr><td style="font-weight:bold;vertical-align:top;">description</td><td style="vertical-align:top;">:</td><td><div>a cool new app</div></td></tr><tr><td style="font-weight:bold;vertical-align:top;">generator</td><td style="vertical-align:top;">:</td><td><div>Web2py Web Framework</div></td></tr><tr><td style="font-weight:bold;vertical-align:top;">keywords</td><td style="vertical-align:top;">:</td><td><div><table><tr><td><div>web2py</div></td></tr><tr><td><div>python</div></td></tr><tr><td><div>framework</div></td></tr></table></div></td></tr></table></div></td></tr><tr><td style="font-weight:bold;vertical-align:top;">models_to_run</td><td style="vertical-align:top;">:</td><td><div><table><tr><td><div>^\\w+\\.py$</div></td></tr><tr><td><div>^JugadorController/\\w+\\.py$</div></td></tr><tr><td><div>^JugadorController/registroCompleto/\\w+\\.py$</div></td></tr></table></div></td></tr><tr><td style="font-weight:bold;vertical-align:top;">postprocessing</td><td style="vertical-align:top;">:</td><td><div><table></table></div></td></tr><tr><td style="font-weight:bold;vertical-align:top;">session_client</td><td style="vertical-align:top;">:</td><td><div>127.0.0.1</div></td></tr><tr><td style="font-weight:bold;vertical-align:top;">session_cookie_compression_level</td><td style="vertical-align:top;">:</td><td><div>None</div></td></tr><tr><td style="font-weight:bold;vertical-align:top;">session_cookie_expires</td><td style="vertical-align:top;">:</td><td><div>None</div></td></tr><tr><td style="font-weight:bold;vertical-align:top;">session_data_name</td><td style="vertical-align:top;">:</td><td><div>session_data_brainchaco</div></td></tr><tr><td style="font-weight:bold;vertical-align:top;">session_file</td><td style="vertical-align:top;">:</td><td><div>&lt;open file &#x27;D:\\\\web2py\\\\applications\\\\BrainChaco\\\\sessions\\\\061\\\\1e6\\\\127.0.0.1-b0c6dea5-560b-4cc8-9482-36ecce045d29&#x27;, mode &#x27;rb+&#x27; at 0x0399DEE8&gt;</div></td></tr><tr><td style="font-weight:bold;vertical-align:top;">session_filename</td><td style="vertical-align:top;">:</td><td><div>D:\\web2py\\applications\\BrainChaco\\sessions\\127.0.0.1-b0c6dea5-560b-4cc8-9482-36ecce045d29</div></td></tr><tr><td style="font-weight:bold;vertical-align:top;">session_hash</td><td style="vertical-align:top;">:</td><td><div>636c0381aaeadd2997f39eb8d411853e</div></td></tr><tr><td style="font-weight:bold;vertical-align:top;">session_id</td><td style="vertical-align:top;">:</td><td><div>127.0.0.1-b0c6dea5-560b-4cc8-9482-36ecce045d29</div></td></tr><tr><td style="font-weight:bold;vertical-align:top;">session_id_name</td><td style="vertical-align:top;">:</td><td><div>session_id_brainchaco</div></td></tr><tr><td style="font-weight:bold;vertical-align:top;">session_locked</td><td style="vertical-align:top;">:</td><td><div>True</div></td></tr><tr><td style="font-weight:bold;vertical-align:top;">session_masterapp</td><td style="vertical-align:top;">:</td><td><div>BrainChaco</div></td></tr><tr><td style="font-weight:bold;vertical-align:top;">session_new</td><td style="vertical-align:top;">:</td><td><div>False</div></td></tr><tr><td style="font-weight:bold;vertical-align:top;">session_storage_type</td><td style="vertical-align:top;">:</td><td><div>file</div></td></tr><tr><td style="font-weight:bold;vertical-align:top;">status</td><td style="vertical-align:top;">:</td><td><div>200</div></td></tr><tr><td style="font-weight:bold;vertical-align:top;">subtitle</td><td style="vertical-align:top;">:</td><td><div></div></td></tr><tr><td style="font-weight:bold;vertical-align:top;">title</td><td style="vertical-align:top;">:</td><td><div>Brainchaco</div></td></tr><tr><td style="font-weight:bold;vertical-align:top;">view</td><td style="vertical-align:top;">:</td><td><div>JugadorController/registroCompleto.html</div></td></tr></table></div>'
tRp176
sS'locals'
p177
(dp178
S'self'
p179
S'<DAL uri="mysql://root:@localhost/brainchaco">'
p180
sS'key'
p181
S"'usuario'"
p182
sssS'traceback'
p183
S'Traceback (most recent call last):\n  File "D:\\web2py\\gluon\\restricted.py", line 227, in restricted\n    exec ccode in environment\n  File "D:\\web2py\\applications\\BrainChaco\\controllers/JugadorController.py", line 81, in <module>\n  File "D:\\web2py\\gluon\\globals.py", line 417, in <lambda>\n    self._caller = lambda f: f()\n  File "D:\\web2py\\applications\\BrainChaco\\controllers/JugadorController.py", line 28, in registroCompleto\n    nick = db(db.usuario.nombre == form.Nom).select()\n  File "D:\\web2py\\gluon\\packages\\dal\\pydal\\base.py", line 921, in __getattr__\n    return BasicStorage.__getattribute__(self, key)\nAttributeError: \'DAL\' object has no attribute \'usuario\'\n'
p184
s.