(dp1
S'output'
p2
S'<class \'_mysql_exceptions.ProgrammingError\'> (1064, "You have an error in your SQL syntax; check the manual that corresponds to your MariaDB server version for the right syntax to use near \'\' at line 1")'
p3
sS'layer'
p4
S'D:\\web2py\\applications\\BrainChaco\\controllers/PreguntasController.py'
p5
sS'code'
p6
S'# -*- coding: utf-8 -*-\n# intente algo como\nfrom gluon.serializers import json\ndef index():\n   \tresponse.view=\'PreguntasController/index.html\'\n   \tpreguntas=[]\n   \trespuesta=[]\n   \tsession.puntaje=0\n   \t\n   \treturn dict(preguntas=preguntas,respuesta=respuesta)\n\t\ndef seleccionar_pregunta():\n\trespuesta={}\n\tresultado=[] #lista que almacenara el diccionario de categoria,pregunta y respuesta\n\t\n\tresul_categoria = db.executesql(\'SELECT id,descripcion FROM categoria ORDER BY RAND() LIMIT 1\')\n\tfor row in resul_categoria:\n \t\tcategoria = {\'idCat\': row[0], \'descCat\': row[1]}\n \t\n\tresul_pregunta = db.executesql(\'SELECT id,descripcion FROM pregunta WHERE idcat=\'+ str(categoria[\'idCat\']) +\' ORDER BY RAND() LIMIT 1\')\n \tfor row in resul_pregunta:\n \t\tpregunta = {\'idPreg\': row[0], \'descPreg\': row[1]}\n\n \tresul_respuesta=db.executesql(\'SELECT id,descripcion FROM RESPUESTAPREGUNTA WHERE idPreg=\'+str(pregunta[\'idPreg\']))\n \tx=0\n\tfor row in resul_respuesta:\n \t\trespuesta[\'idResp\'+str(x)] = row[0] \n \t\trespuesta[\'descResp\'+str(x)] = row[1]\n \t\tx=x+1\n\n \tresultado.append(categoria)\n \tresultado.append(pregunta)\n \tresultado.append(respuesta)\n \treturn response.json(resultado)\n\n\'\'\'def seleccionar_categoria():\n\tcategoria=[]\n\tresul = db.executesql(\'SELECT id,descripcion FROM categoria ORDER BY RAND() LIMIT 1\')\n \tfor row in resul:\n \t\tresultado = {\'idCat\': row[0], \'descCat\': row[1]}\n \tcategoria.append(resultado)\n \treturn response.json(categoria) \'\'\'\n\ndef verificar_respuesta():\n\tidPreg= request.vars.idPreg\n\tresp_usuario= request.vars.resp\n\n\topcion=db.executesql(\'SELECT descripcion from respuestapregunta WHERE opcion="V" AND idPreg=\'+idPreg)\n\tfor resp in opcion:\n\t\tif str(resp[0])==resp_usuario:\n\t\t\trespuesta=\'V\'\n\t\telse:\n\t\t\trespuesta=\'F\'\n \t\n \treturn (respuesta)\n \t\n\n\n\ndef salir():\n\tsession.jugador=\'\'\n\tsession.puntaje=0\n\tredirect(\'index\')\nresponse._vars=response._caller(verificar_respuesta)\n'
p7
sS'snapshot'
p8
(dp9
sS'traceback'
p10
S'Traceback (most recent call last):\n  File "D:\\web2py\\gluon\\restricted.py", line 227, in restricted\n    exec ccode in environment\n  File "D:\\web2py\\applications\\BrainChaco\\controllers/PreguntasController.py", line 64, in <module>\n  File "D:\\web2py\\gluon\\globals.py", line 417, in <lambda>\n    self._caller = lambda f: f()\n  File "D:\\web2py\\applications\\BrainChaco\\controllers/PreguntasController.py", line 48, in verificar_respuesta\n    opcion=db.executesql(\'SELECT descripcion from respuestapregunta WHERE opcion="V" AND idPreg=\'+idPreg)\n  File "D:\\web2py\\gluon\\packages\\dal\\pydal\\base.py", line 1019, in executesql\n    adapter.execute(query)\n  File "D:\\web2py\\gluon\\packages\\dal\\pydal\\adapters\\base.py", line 1388, in execute\n    return self.log_execute(*a, **b)\n  File "D:\\web2py\\gluon\\packages\\dal\\pydal\\adapters\\base.py", line 1382, in log_execute\n    ret = self.get_cursor().execute(command, *a[1:], **b)\n  File "MySQLdb/cursors.py", line 205, in execute\n  File "MySQLdb/connections.py", line 36, in defaulterrorhandler\nProgrammingError: (1064, "You have an error in your SQL syntax; check the manual that corresponds to your MariaDB server version for the right syntax to use near \'\' at line 1")\n'
p11
s.