(dp1
S'output'
p2
S"<type 'exceptions.SyntaxError'> invalid syntax (controllers/HomeController.py, line 347)"
p3
sS'layer'
p4
S'F:\\Informatorio\\web2py\\applications\\BC\\controllers/HomeController.py'
p5
sS'code'
p6
S'# -*- coding: utf-8 -*-\n# intente algo como\ndef index(): \n    session.invitado=\'Invitado\'\n    response.view= \'HomeController/index.html \'\n    return dict()\n\ndef cargar():\n\tdb.escultura.insert(nombre="Tensi\xc3\xb3n",fecha="-",escultor="Acosta, Miguel Angel",pais="Argentina",material="Madera y metal",imagen=" EsculturasFotos\\1.jpg",direccion="Av. De los Inmigrantes 1001 - Museum",lat="-27.437196",lng="-58.980025",premio="Premio de los Ni\xc3\xb1os - Concurso Milenio")\n\tdb.escultura.insert(nombre="Gestaci\xc3\xb3n",fecha="-",escultor="Adaime, Zulema",pais="Argentina",material="Hierro",imagen="EsculturasFotos\\2.jpg",direccion="Pellegrini 209",lat="-27.451123",lng="-58.982975",premio="-")\n\tdb.escultura.insert(nombre="El vientre de los testigos",fecha="28-7-1993",escultor="Agosta, Juli\xc3\xa1n",pais="Argentina",material="Chapa",imagen="EsculturasFotos\\3.jpg",direccion="Av. Avalos 450 - Casa del M\xc3\xa9dico (frente)",lat="-27.44144",lng="-58.989581",premio="-")\n\tdb.escultura.insert(nombre="El escriba",fecha="-",escultor="Alonso, Jos\xc3\xa9",pais="Argentina",material="Cemento",imagen="EsculturasFotos\\4.jpg",direccion="Juan D. Per\xc3\xb3n 159",lat="-27.451385",lng="-58.989754",premio="-")\n\tdb.escultura.insert(nombre="Torso",fecha="14-7-1961",escultor="Alonso, Jos\xc3\xa9",pais="Argentina",material="Piedra",imagen="EsculturasFotos\\5.jpg",direccion="Brown 134",lat="-27.450697",lng="-58.983616",premio="-")\n\tdb.escultura.insert(nombre="Torso",fecha="-",escultor="Althaus, Carlos",pais="Argentina",material="Piedra reconstituida",imagen="EsculturasFotos\\6.jpg",direccion="Juan D. Per\xc3\xb3n 85",lat="-27.452078",lng="-58.988989",premio="-")\n\tdb.escultura.insert(nombre="Desde las entra\xc3\xb1as",fecha="20-3-1997",escultor="Alvarez Lomba, Arturo",pais="Argentina",material="M\xc3\xa1rmol travertino",imagen="EsculturasFotos\\7.jpg",direccion="Julio A. Roca 586",lat="-27.447405",lng="-58.992432",premio="-")\n\tdb.escultura.insert(nombre="Tehuelche",fecha="-",escultor="Andina, Emilio",pais="Argentina",material="Bronce",imagen="EsculturasFotos\\8.jpg",direccion="Mitre 198",lat="-27.448912",lng="-58.985679",premio="-")\n\tdb.escultura.insert(nombre="Holocausto universal",fecha="18-12-1994",escultor="Aranovich, Claudia",pais="Argentina",material="Acero inoxidable y Hormigon",imagen="EsculturasFotos\\9.jpg",direccion="Plaza 9 de Julio",lat="-27.450797",lng="-58.994023",premio="-")\n\tdb.escultura.insert(nombre="Un d\xc3\xada ya no tendr\xc3\xa9 miedo",fecha="11-3-1997",escultor="Archambault, Pascale",pais="Canad\xc3\xa1",material="M\xc3\xa1rmol travertino",imagen="EsculturasFotos\\10.jpg",direccion="Santa Fe 642",lat="-27.444589",lng="-58.99029",premio="Premio del P\xc3\xbablico - Nuevo Banco del Chaco")\n\tdb.escultura.insert(nombre="El hombre y la roca",fecha="0-0-1974",escultor="Arena, Domingo",pais="Argentina",material="Cemento",imagen="EsculturasFotos\\11.jpg",direccion="Peatonal Juan D. Per\xc3\xb3n 43",lat="-27.452349",lng="-58.98871",premio="-")\n\tdb.escultura.insert(nombre="Figura con c\xc3\xa1ntaro",fecha="-",escultor="Arena, Domingo",pais="Argentina",material="Madera",imagen="EsculturasFotos\\12.jpg",direccion="Ruta Nacional 11, Km 1003,5 - Aeropuerto Internacional Resistencia",lat="-27.445039",lng="-59.048527",premio="-")\n\tdb.escultura.insert(nombre="Abstracci\xc3\xb3n",fecha="22-2-1962",escultor="Arranz, Fernando",pais="Argentina",material="Cer\xc3\xa1mica",imagen="EsculturasFotos\\14.jpg",direccion="Marcelo T. De Alvear 141",lat="-27.44935",lng="-58.987031",premio="-")\n\tdb.escultura.insert(nombre="Frustraci\xc3\xb3n",fecha="-",escultor="Arrigutti, Mario",pais="Argentina",material="Cemento",imagen="EsculturasFotos\\15.jpg",direccion="Av. Alberdi 198",lat="-27.452542",lng="-58.98823",premio="-")\n\tdb.escultura.insert(nombre="San Francisco",fecha="-",escultor="Arrigutti, Mario",pais="Argentina",material="Piedra reconstituida",imagen="EsculturasFotos\\16.jpg",direccion="Brown 500",lat="-27.453432",lng="-58.98057",premio="-")\n\tdb.escultura.insert(nombre="Leda",fecha="-",escultor="Asali, Oreste",pais="Argentina",material="Piedra reconstituida",imagen="EsculturasFotos\\17.jpg",direccion="Brown 65",lat="-27.450014",lng="-58.984142",premio="-")\n\tdb.escultura.insert(nombre="Bailarina en descanso",fecha="-",escultor="Azcarate, Enrique",pais="Argentina",material="Cemento",imagen="EsculturasFotos\\18.jpg",direccion="Av. Sarmiento 706",lat="-27.445427",lng="-58.980328",premio="-")\n\tdb.escultura.insert(nombre="Manantial",fecha="-",escultor="Azlor, Ernestina",pais="Argentina",material="M\xc3\xa1rmol travertino",imagen="EsculturasFotos\\19.jpg",direccion="Plaza 25 de Mayo de 1810",lat="-27.452316",lng="-58.986404",premio="-")\n\tdb.escultura.insert(nombre="El alma",fecha="4-4-1962",escultor="Bad\xc3\xadi, L\xc3\xadbero",pais="Argentina",material="Bronce",imagen="EsculturasFotos\\20.jpg",direccion="Av. Alberdi 202",lat="-27.452716",lng="-58.988455",premio="-")\n\tdb.escultura.insert(nombre="Adolescencia",fecha="8-5-1970",escultor="Baglietto de Alio, Hermi",pais="Argentina",material="Bronce",imagen="EsculturasFotos\\21.jpg",direccion="Av. 9 de Julio 106",lat="-27.452099",lng="-58.985553",premio="-")\n\tdb.escultura.insert(nombre="Torso I",fecha="`1978",escultor="Balietti, Alberto",pais="Argentina",material="Cemento",imagen="EsculturasFotos\\22.jpg",direccion="Marcelo T. De Alvear 147 - Casa de Gobierno",lat="-27.44924",lng="-58.98709",premio="-")\n\tdb.escultura.insert(nombre="Torso II",fecha="-",escultor="Balietti, Alberto",pais="Argentina",material="Cemento",imagen="EsculturasFotos\\23.jpg",direccion="Ameghino 220",lat="-27.456074",lng="-58.987997",premio="-")\n\tdb.escultura.insert(nombre="G\xc3\xbcemes",fecha="-",escultor="Balietti, Alberto",pais="Argentina",material="Piedra reconstituida",imagen="EsculturasFotos\\24.jpg",direccion="Hip\xc3\xb3lito Yrigoyen 469",lat="-27.453858",lng="-58.981551",premio="-")\n\tdb.escultura.insert(nombre="Anunciaci\xc3\xb3n",fecha="22-2-1962",escultor="Barnes, Eduardo",pais="Argentina",material="Piedra reconstituida",imagen="EsculturasFotos\\25.jpg",direccion="Julio A. Roca 158",lat="-27.45067",lng="-58.988724",premio="-")\n\tdb.escultura.insert(nombre="Leon de Damasco",fecha="28-2-1978",escultor="Basaldella, Mirko",pais="Italia",material="Bronce",imagen="EsculturasFotos\\26.jpg",direccion="Av. Avalos 955",lat="-27.43724",lng="-58.985178",premio="-")\n\tdb.escultura.insert(nombre="Ansia de luz",fecha="27-10-1961",escultor="Blotta, Herminio",pais="Argentina",material="Bronce",imagen="EsculturasFotos\\27.jpg",direccion="Arturo Illia 99",lat="-27.45337",lng="-58.987388",premio="-")\n\tdb.escultura.insert(nombre="Jos\xc3\xa9 Hern\xc3\xa1ndez",fecha="0-0-1998",escultor="Blotta, Herminio",pais="Argentina",material="Cemento",imagen="EsculturasFotos\\28.jpg",direccion="Av. Laprida 700 al 800",lat="-27.450376",lng="-58.973274",premio="-")\n\tdb.escultura.insert(nombre="Chaco",fecha="30-7-1969",escultor="Bonome, Rodrigo",pais="Argentina",material="Fuente mural - Mosaico veneciano",imagen="EsculturasFotos\\29.jpg",direccion="Plaza 25 de Mayo",lat="-27.450552",lng="-58.986808",premio="-")\n\tdb.escultura.insert(nombre="Hacha ceremonial",fecha="19-7-1998",escultor="Botero, Germ\xc3\xa1n",pais="Colombia",material="M\xc3\xa1rmol travertino y metal",imagen="EsculturasFotos\\30.jpg",direccion="Plazoleta Aldo y Efra\xc3\xadn Boglietti",lat="-27.445458",lng="-58.977893",premio="Premio Consalud - Segunda Trienal Americana de Escultura")\n\tdb.escultura.insert(nombre="Maternidad",fecha="0-0-1991",escultor="Vozzo, Hilario",pais="Argentina",material="Cemento patinado",imagen="EsculturasFotos\\31.jpg",direccion="Arbo y Blanco 120",lat="-27.456759",lng="-58.982412",premio="-")\n\tdb.escultura.insert(nombre="Figura",fecha="-",escultor="Bucci, Ermando",pais="Argentina",material="Cemento",imagen="EsculturasFotos\\32.jpg",direccion="Frondizi 47",lat="-27.452342",lng="-58.986049",premio="-")\n\tdb.escultura.insert(nombre="Grupo escult\xc3\xb3rico",fecha="-",escultor="Budini, Miguel Angel",pais="Argentina",material="Cemento",imagen="EsculturasFotos\\33.jpg",direccion="Roque Saenz Pe\xc3\xb1a 453",lat="-27.457014",lng="-58.987782",premio="-")\n\tdb.escultura.insert(nombre="Ritual rupestre del pr\xc3\xb3ximo milenio",fecha="-",escultor="Bustos Navarro, Carlos",pais="Argentina",material="Madera, resina y metal",imagen="EsculturasFotos\\34.jpg",direccion="Av. Sabin",lat="-27.432361",lng="-58.980505",premio="Premio del P\xc3\xbablico - Concurso Milenio")\n\tdb.escultura.insert(nombre="Sin t\xc3\xadtulo",fecha="-",escultor="Bustos Navarro, Carlos",pais="Argentina",material="Chapa",imagen="EsculturasFotos\\35.jpg",direccion="Entrada Aeropuerto Internacional Resistencia",lat="-27.444047",lng="-59.024619",premio="-")\n\tdb.escultura.insert(nombre="Sin t\xc3\xadtulo",fecha="-",escultor="Bustos Navarro, Carlos",pais="Argentina",material="Chapa",imagen="EsculturasFotos\\36.jpg",direccion="Entrada Aeropuerto Internacional Resistencia",lat="-27.444511",lng="-59.024968",premio="-")\n\tdb.escultura.insert(nombre="Canto americano",fecha="-",escultor="Bustos Navarro, Carlos",pais="Argentina",material="Piedra reconstitu\xc3\xaddo",imagen="EsculturasFotos\\37.jpg",direccion="Necochea 302",lat="-27.451206",lng="-58.991879",premio="-")\n\tdb.escultura.insert(nombre="Ofrenda americana",fecha="28-7-1993",escultor="Caner, Fausto",pais="Argentina",material="Lava volc\xc3\xa1nica",imagen="EsculturasFotos\\39.jpg",direccion="Arturo Illia 500",lat="-27.45644",lng="-58.983925",premio="-")\n\tdb.escultura.insert(nombre="Mari",fecha="-",escultor="Caner, Fausto",pais="Argentina",material="Cemento",imagen="EsculturasFotos\\40.jpg",direccion="Santa Mar\xc3\xada de Oro 285",lat="-27.452585",lng="-58.989828",premio="-")\n\tdb.escultura.insert(nombre="Trilog\xc3\xada de m\xc3\xa1scaras",fecha="-",escultor="Carletti, Jos\xc3\xa9",pais="-",material="Piedra",imagen="EsculturasFotos\\41.jpg",direccion="Ruta Nacional 11, Km 1003,5 - Aeropuerto Internacional Resistencia",lat="-27.444554",lng="-59.049145",premio="-")\n\tdb.escultura.insert(nombre="Comunicador de emociones III",fecha="-",escultor="Carrasco, Ted",pais="Bolivia",material="M\xc3\xa1rmol travertino",imagen="EsculturasFotos\\42.jpg",direccion="Av. De los Inmigrantes 1001 - Museum ",lat="-27.438676",lng="-58.981632",premio="Premio Fundaci\xc3\xb3n Andreani - Primera Bienal Internacional de Escultura")\n\tdb.escultura.insert(nombre="Imagen del alba",fecha="-",escultor="Carriza, Hugo C\xc3\xa9sar",pais="Argentina",material="Cemento",imagen="EsculturasFotos\\43.jpg",direccion="Av. Sarmiento 2300",lat="-27.434258",lng="-58.967456",premio="-")\n\tdb.escultura.insert(nombre="Cuando llegue la hora te estar\xc3\xa9 esperando",fecha="31-12-1996",escultor="Castro, Luis",pais="Venezuela",material="M\xc3\xa1rmol travertino",imagen="EsculturasFotos\\44.jpg",direccion="La Rioja 268",lat="-27.444325",lng="-58.983541",premio="Premio de los Ni\xc3\xb1os - Segunda Trienal Americana de Escultura")\n\tdb.escultura.insert(nombre="El sembrador",fecha="1-3-1962",escultor="Constanzo, Julio",pais="Argentina",material="Cemento",imagen="EsculturasFotos\\45.jpg",direccion="Vedia 152",lat="-27.450726",lng="-58.989685",premio="-")\n\tdb.escultura.insert(nombre="Cabeza de Almafuerte",fecha="3-5-1963",escultor="Correa Morales, Lucio",pais="Argentina",material="Bronce",imagen="EsculturasFotos\\46.jpg",direccion="Av. San Martin 100 al 200",lat="-27.456105",lng="-58.98337",premio="-")\n\tdb.escultura.insert(nombre="Margarita en monociclo paseando por la Ciudad de las Esculturas",fecha="6-1-1999",escultor="Cuevas, Carlos",pais="Argentina",material="Resina",imagen="EsculturasFotos\\47.jpg",direccion="Av. Las Heras 120",lat="-27.458437",lng="-58.9808",premio="-")\n\tdb.escultura.insert(nombre="Hombre sentado",fecha="`1978",escultor="Cuesta, Orlando Eloy",pais="Argentina",material="Madera algarrobo patinado",imagen="EsculturasFotos\\48.jpg",direccion="Ruta Nacional 11, Km 1003,5 - Aeropuerto Internacional Resistencia",lat="-27.444656",lng="-59.049054",premio="-")\n\tdb.escultura.insert(nombre="Remordimiento",fecha="31-10-1962",escultor="Cullen Ayerza, Hern\xc3\xa1n",pais="Argentina",material="Bronce",imagen="EsculturasFotos\\49.jpg",direccion="Juan B. Justo 102",lat="-27.45287",lng="-58.986451",premio="-")\n\tdb.escultura.insert(nombre="D\xc3\xbao",fecha="25-8-1999",escultor="Chablais, Jean Paul",pais="Francia",material="M\xc3\xa1rmol travertino",imagen="EsculturasFotos\\50.jpg",direccion="Av. San Martin 602 - Escuela de Comercio 7, 8 y 9",lat="-27.459685",lng="-58.98768",premio="-")\n\tdb.escultura.insert(nombre="P\xc3\xa9ndulo",fecha="`1978",escultor="Daga, Ricardo",pais="Argentina",material="Bronce",imagen="EsculturasFotos\\51.jpg",direccion="Mitre 97",lat="-27.44955",lng="-58.986811",premio="-")\n\tdb.escultura.insert(nombre="Cabeza de Fernando Arranz",fecha="-",escultor="De la C\xc3\xa1rcova, Ernesto",pais="Argentina",material="Bronce",imagen="EsculturasFotos\\52.jpg",direccion="Plaza 25 de Mayo",lat="-27.450291",lng="-58.986862",premio="-")\n\tdb.escultura.insert(nombre="Gaucho Victoriano Nogueira",fecha="`1972",escultor="Della Lastra, Ricardo",pais="-",material="Bronce",imagen="EsculturasFotos\\53.jpg",direccion="Av. 9 de Julio 699",lat="-27.456436",lng="-58.980339",premio="-")\n\tdb.escultura.insert(nombre="Quinre",fecha="-",escultor="De Leo, Jos\xc3\xa9 Luis",pais="Argentina",material="Madera",imagen="EsculturasFotos\\54.jpg",direccion="Marcelo T. De Alvear 145 - Casa de Gobierno",lat="-27.449795",lng="-58.98713",premio="Tercer premio - Quinto Concurso Nacional de Escultura en Madera")\n\tdb.escultura.insert(nombre="Madre",fecha="-",escultor="De Robertis, Pablo",pais="Argentina",material="Bronce",imagen="EsculturasFotos\\55.jpg",direccion="Juan D. Per\xc3\xb3n 123",lat="-27.451709",lng="-58.989404",premio="-")\n\tdb.escultura.insert(nombre="Luna",fecha="-",escultor="Devoto, Antonio",pais="Argentina",material="Bronce",imagen="EsculturasFotos\\56.jpg",direccion="Julio A. Roca 440",lat="-27.448519",lng="-58.991184",premio="-")\n\tdb.escultura.insert(nombre="Maternidad",fecha="10-8-1968",escultor="Devoto, Antonio",pais="Argentina",material="Cemento",imagen="EsculturasFotos\\57.jpg",direccion="G\xc3\xbcemes 190",lat="-27.450493",lng="-58.983887",premio="-")\n\tdb.escultura.insert(nombre="Madre",fecha="-",escultor="Diamante de Gorodner, Lola",pais="Argentina",material="Cemento",imagen="EsculturasFotos\\58.jpg",direccion="Hip\xc3\xb3lito yrigoyen 236",lat="-27.452232",lng="-58.983592",premio="-")\n\tdb.escultura.insert(nombre="De la serie de la ribera",fecha="-",escultor="D\xc3\xadaz, Alberto Bast\xc3\xb3n",pais="Argentina",material="Madera",imagen="EsculturasFotos\\59.jpg",direccion="Roque Saenz Pe\xc3\xb1a 180 - Secheep",lat="-27.454703",lng="-58.985641",premio="Tercer Premio - Primera Trienal Nacional de Escultra en Madera")\n\tdb.escultura.insert(nombre="En memoria de...",fecha="19-7-1998",escultor="D\xc3\xadaz Navarro, Carlos",pais="Argentina",material="M\xc3\xa1rmol travertino",imagen="EsculturasFotos\\60.jpg",direccion="Plazoleta Aldo y Efra\xc3\xadn Boglietti",lat="-27.445111",lng="-58.97796",premio="Premio Fundaci\xc3\xb3n Andreani - Gran Premio de Honor")\n\tdb.escultura.insert(nombre="Cabeza de Juan Ram\xc3\xb3n Lestani",fecha="2-2-1959",escultor="Dominguez, Crisanto",pais="Argentina",material="Bronce",imagen="EsculturasFotos\\63.jpg",direccion="Av. Italia 1",lat="-27.454865",lng="-58.982007",premio="-")\n\tdb.escultura.insert(nombre="Cabeza del Poeta Gaspar Benavento",fecha="14-7-1961",escultor="Dominguez, Crisanto",pais="Argentina",material="Bronce",imagen="EsculturasFotos\\64.jpg",direccion="Brown 350 - El Fog\xc3\xb3n de los Arrieros",lat="-27.45248",lng="-58.981779",premio="-")\n\tdb.escultura.insert(nombre="Julia",fecha="9-12-1997",escultor="Dominguez, Crisanto",pais="Argentina",material="Bronce",imagen="EsculturasFotos\\65.jpg",direccion="Hip\xc3\xb3lito yrigoyen 726",lat="-27.456022",lng="-58.979304",premio="-")\n\tdb.escultura.insert(nombre="Desnudo",fecha="-",escultor="Domp\xc3\xa9, Hern\xc3\xa1n",pais="Argentina",material="M\xc3\xa1rmol travertino",imagen="EsculturasFotos\\66.jpg",direccion="Av. Italia 50",lat="-27.454755",lng="-58.981763",premio="-")\n\tdb.escultura.insert(nombre="Pinchila",fecha="19-7-1998",escultor="Domp\xc3\xa9, Hern\xc3\xa1n",pais="Argentina",material="M\xc3\xa1rmol travertino",imagen="EsculturasFotos\\67.jpg",direccion="Av. De los Inmigrantes 1001 - Museum ",lat="-27.43761",lng="-58.981468",premio="Premio del P\xc3\xbablico - Gran Premio de Honor")\n\tdb.escultura.insert(nombre="Guardiana del sol",fecha="-",escultor="Domp\xc3\xa9, Hern\xc3\xa1n",pais="Argentina",material="Cemento patinado",imagen="EsculturasFotos\\68.jpg",direccion="Salta 185",lat="-27.452094",lng="-58.99077",premio="-")\n\tdb.escultura.insert(nombre="Cuchillo",fecha="-",escultor="Domp\xc3\xa9, Hern\xc3\xa1n",pais="Argentina",material="Madera",imagen="EsculturasFotos\\69.jpg",direccion="Roque Saenz Pe\xc3\xb1a 180 - Secheep",lat="-27.454784",lng="-58.985703",premio="Tercer Premio - Primer Concurso Trienal Internacional de Escultura en Madera")\n\tdb.escultura.insert(nombre="Construyamos juntos el mundo que so\xc3\xb1amos",fecha="6-11-1996",escultor="Eidman, Mimo",pais="Argentina",material="Metal",imagen="EsculturasFotos\\71.jpg",direccion="Arbo y Blanco 260",lat="-27.457771",lng="-58.983555",premio="-")\n\tdb.escultura.insert(nombre="Chaco",fecha="26-6-1996",escultor="Eidman, Mimo",pais="Argentina",material="Chapa y m\xc3\xa1rmol",imagen="EsculturasFotos\\73.jpg",direccion="Av. Sarmiento 199",lat="-27.449619",lng="-58.984925",premio="-")\n\tdb.escultura.insert(nombre="Luana",fecha="5-3-1999",escultor="Eidman, Mimo",pais="Argentina",material="M\xc3\xa1rmol travertino, metal, granito",imagen="EsculturasFotos\\74.jpg",direccion="Santa Fe 560",lat="-27.445175",lng="-58.989625",premio="-")\n\tdb.escultura.insert(nombre="Reflexi\xc3\xb3n",fecha="28-12-1999",escultor="Eidman, Mimo",pais="Argentina",material="Metal",imagen="EsculturasFotos\\75.jpg",direccion="Marcelo T. De Alvear 751",lat="-27.444554",lng="-58.992219",premio="-")\n\tdb.escultura.insert(nombre="Madre",fecha="21-10-1962",escultor="Mariscal, Jos\xc3\xa9",pais="Argentina",material="Madera de quebracho",imagen="EsculturasFotos\\76.jpg",direccion="Plaza Espa\xc3\xb1a",lat="-27.458672",lng="-58.98632",premio="-")\n\tdb.escultura.insert(nombre="Arbol de la vida",fecha="27-3-1999",escultor="Eidman, Mimo",pais="Argentina",material="Cemento y metal",imagen="EsculturasFotos\\77.jpg",direccion="Av. V\xc3\xa9lez S\xc3\xa1rfield 400 al 500",lat="-27.454684",lng="-58.976168",premio="-")\n\tdb.escultura.insert(nombre="Monumento al maestro",fecha="-",escultor="Eidman, Mimo y Fabriciano",pais="Argentina",material="Mural cemento",imagen="EsculturasFotos\\78.jpg",direccion="Plaza 25 de Mayo",lat="-27.450752",lng="-58.987209",premio="-")\n\tdb.escultura.insert(nombre="La noche",fecha="8-11-1968",escultor="Eloisegui, Rub\xc3\xa9n",pais="Argentina",material="Piedra roja reconstitu\xc3\xadda",imagen="EsculturasFotos\\79.jpg",direccion="Av. Alberdi 175",lat="-27.452523",lng="-58.987943",premio="-")\n\tdb.escultura.insert(nombre="Libertad",fecha="0-0-1976",escultor="Fabriciano",pais="Argentina",material="Cemento",imagen="EsculturasFotos\\80.jpg",direccion="Arturo Ill\xc3\xada 270",lat="-27.454862",lng="-58.985915",premio="Primer premio - LXV Sal\xc3\xb3n Nacional")\n\tdb.escultura.insert(nombre="Encadenamiento diagonal",fecha="26-6-1995",escultor="Fabriciano",pais="Argentina",material="M\xc3\xa1rmol dolomita",imagen="EsculturasFotos\\81.jpg",direccion="Julio A. Roca 1741",lat="-27.437977",lng="-59.003242",premio="-")\n\tdb.escultura.insert(nombre="Apoyo esencial",fecha="27-11-1997",escultor="Fabriciano",pais="Argentina",material="M\xc3\xa1rmol travertino - Madera y metal",imagen="EsculturasFotos\\82.jpg",direccion="G\xc3\xbcemes 46",lat="-27.451586",lng="-58.985168",premio="-")\n\tdb.escultura.insert(nombre="Victoria",fecha="-",escultor="Fabriciano",pais="Argentina",material="M\xc3\xa1rmol de Carrara",imagen="EsculturasFotos\\83.jpg",direccion="Ruta Nacional 11, Km 1003,5 - Aeropuerto Internacional Resistencia",lat="-27.444661",lng="-59.04892",premio="-")\n\tdb.escultura.insert(nombre="Victoria II",fecha="0-0-1983",escultor="Fabriciano",pais="Argentina",material="M\xc3\xa1rmol",imagen="EsculturasFotos\\84.jpg",direccion="G\xc3\xbcemes 144",lat="-27.450970918970555",lng="-58.984447717666626",premio="-")\n\tdb.escultura.insert(nombre="Familia",fecha="19-7-1998",escultor="Fabriciano",pais="Argentina",material="Metal",imagen="EsculturasFotos\\85.jpg",direccion="Av. Mac Lean y Julio A. Roca",lat="-27.439245",lng="-59.001942",premio="-")\n\tdb.escultura.insert(nombre="Canto americano",fecha="-",escultor="Fabriciano",pais="Argentina",material="M\xc3\xa1rmol",imagen="EsculturasFotos\\86.jpg",direccion="Frondizi 123",lat="-27.452884",lng="-58.986646",premio="-")\n\tdb.escultura.insert(nombre="Maternidad",fecha="`1993",escultor="Fabriciano",pais="Argentina",material="M\xc3\xa1rmol travertino",imagen="EsculturasFotos\\88.jpg",direccion="Mitre 401",lat="-27.447086",lng="-58.983952",premio="-")\n\tdb.escultura.insert(nombre="Inmaculada",fecha="0-0-1978",escultor="Fabriciano",pais="Argentina",material="M\xc3\xa1rmol de Carrara",imagen="EsculturasFotos\\89.jpg",direccion="Santa Mar\xc3\xada de Oro 60",lat="-27.450857",lng="-58.988149",premio="-")\n\tdb.escultura.insert(nombre="San Fernando",fecha="0-0-1978",escultor="Fabriciano",pais="Argentina",material="M\xc3\xa1rmol de Carrara",imagen="EsculturasFotos\\90.jpg",direccion="Santa Mar\xc3\xada de Oro 60",lat="-27.450947",lng="-58.988243",premio="-")\n\tdb.escultura.insert(nombre="Magnetismo",fecha="0-12-1999",escultor="Fabriciano",pais="Argentina",material="M\xc3\xa1rmol travertino y metal",imagen="EsculturasFotos\\92.jpg",direccion="Monteagudo 62",lat="-27.455386",lng="-58.980671",premio="-")\n\tdb.escultura.insert(nombre="Procesi\xc3\xb3n de destellos",fecha="28-8-1999",escultor="Fabriciano",pais="Argentina",material="M\xc3\xa1rmol dolomita",imagen="EsculturasFotos\\93.jpg",direccion="Monteagudo 546",lat="-27.451566",lng="-58.976431",premio="-")\n\tdb.escultura.insert(nombre="Busto de Belgrano",fecha="19-6-1970",escultor="Fabriciano",pais="Argentina",material="Cemento",imagen="EsculturasFotos\\94.jpg",direccion="Av. Belgrano 0 al 100",lat="-27.447382",lng="-58.991086",premio="-")\n\tdb.escultura.insert(nombre="Bruno Ramirez",fecha="11-9-1978",escultor="Fabriciano",pais="Argentina",material="Cemento",imagen="EsculturasFotos\\95.jpg",direccion="Av. Sarmiento 108",lat="-27.450243",lng="-58.98539",premio="-")\n\tdb.escultura.insert(nombre="Encuentros I",fecha="-",escultor="Fabriciano",pais="Argentina",material="Cemento",imagen="EsculturasFotos\\96.jpg",direccion="Av. Sarmiento y ruta Nicolas Avellaneda",lat="-27.422333",lng="-58.956065",premio="-")\n\tdb.escultura.insert(nombre="Plegaria",fecha="28-7-1999",escultor="Fabriciano",pais="Argentina",material="Resina",imagen="EsculturasFotos\\97.jpg",direccion="Mitre 50",lat="-27.449814",lng="-58.987066",premio="-")\n\tdb.escultura.insert(nombre="Se\xc3\xb1ales",fecha="`1999",escultor="Fabriciano",pais="Argentina",material="Metal",imagen="EsculturasFotos\\98.jpg",direccion="Av. San Martin 499",lat="-27.458885",lng="-58.986323",premio="-")\n\tdb.escultura.insert(nombre="Inmaculada",fecha="-",escultor="Fabriciano",pais="Argentina",material="M\xc3\xa1rmol",imagen="EsculturasFotos\\99.jpg",direccion="Ruta 11 y ruta 16",lat="-27.411919",lng="-59.00217",premio="-")\n\tdb.escultura.insert(nombre="A la mar",fecha="-",escultor="Fabriciano",pais="Argentina",material="Chapa",imagen="EsculturasFotos\\100.jpg",direccion="Av. Firpo 103 ",lat="-27.478485",lng="-58.953061",premio="-")\n\tdb.escultura.insert(nombre="Mujer del \xc3\xa9xodo (reproducci\xc3\xb3n)",fecha="4-4-1962",escultor="Falcini, Luis",pais="Argentina",material="Cemento",imagen="EsculturasFotos\\101.jpg",direccion="Peatonal Arturo Ill\xc3\xada 161",lat="-27.45391",lng="-58.986779",premio="-")\n\tdb.escultura.insert(nombre="Espera",fecha="-",escultor="Fern\xc3\xa1ndez Mar, Nicasio",pais="Argentina",material="Piedra",imagen="EsculturasFotos\\102.jpg",direccion="Santa Mar\xc3\xada de Oro 2",lat="-27.450399",lng="-58.987625",premio="-")\n\tdb.escultura.insert(nombre="Estructura",fecha="-",escultor="Fern\xc3\xa1ndez Olivi, Ra\xc3\xbal",pais="Argentina",material="Madera",imagen="EsculturasFotos\\103.jpg",direccion="Marcelo T. De Alvear 145 - Casa de Gobierno",lat="-27.449576",lng="-58.986935",premio="Segundo Premio - Sexto Concurso Nacional de Escultura en Madera")\n\tdb.escultura.insert(nombre="Wichiqomocoi",fecha="0-0-1999",escultor="Ferrer, Francisco",pais="Argentina",material="Madera",imagen="EsculturasFotos\\104.jpg",direccion="Rotonda Villa Rossi (Barranqueras)",lat="-27.482885",lng="-58.936198",premio="Segundo Premio - Concurso Milenio")\n\tdb.escultura.insert(nombre="Cabeza de Guillermo Hillcoat",fecha="15-8-1963",escultor="Fioravanti, Jos\xc3\xa9",pais="Argentina",material="Bronce",imagen="EsculturasFotos\\105.jpg",direccion="Juan B. Justo 143",lat="-27.453051",lng="-58.98605",premio="-")\n\tdb.escultura.insert(nombre="Despertar",fecha="19-6-1969",escultor="Fontana, Lucio",pais="Argentina",material="Bronce",imagen="EsculturasFotos\\106.jpg",direccion="G\xc3\xbcemes 2",lat="-27.451859",lng="-58.985488",premio="-")\n\tdb.escultura.insert(nombre="Los peces en el bosque",fecha="7-7-1999",escultor="Fujibe, Yoshito",pais="Jap\xc3\xb3n",material="M\xc3\xa1rmol travertino",imagen="EsculturasFotos\\107.jpg",direccion="Av. Sarmiento 2100",lat="-27.434494",lng="-58.9677",premio="-")\n\tdb.escultura.insert(nombre="Bailarina",fecha="-",escultor="Gabito, Walter",pais="Argentina",material="Cemento",imagen="EsculturasFotos\\108.jpg",direccion="Av. Sarmiento 485",lat="-27.447408",lng="-58.982463",premio="-")\n\tdb.escultura.insert(nombre="Mujer andina",fecha="26-9-1969",escultor="Gaimari, Enrique",pais="Argentina",material="Piedra",imagen="EsculturasFotos\\109.jpg",direccion="Av. Sarmiento 335",lat="-27.448534",lng="-58.983796",premio="-")\n\tdb.escultura.insert(nombre="Forma",fecha="10-7-1997",escultor="Gajardo, Jos\xc3\xa9 Vicente",pais="Chile",material="M\xc3\xa1rmol travertino",imagen="EsculturasFotos\\111.jpg",direccion="Jos\xc3\xa9 Maria Paz 101",lat="-27.453615",lng="-58.985703",premio="Segundo puesto y Premio de Escultores")\n\tdb.escultura.insert(nombre="Mesa",fecha="19-7-1998",escultor="Gajardo, Jos\xc3\xa9 Vicente",pais="Chile",material="Granito",imagen="EsculturasFotos\\112.jpg",direccion="Av. De los Inmigrantes 1001 - Museum",lat="-27.437555",lng="-58.980975",premio="Gran Premio de Honor")\n\tdb.escultura.insert(nombre="Cincel",fecha="19-7-1998",escultor="Gamarra, Jorge",pais="Argentina",material="Granito y chapa",imagen="EsculturasFotos\\113.jpg",direccion="Av. De los Inmigrantes 1001 - Museum",lat="-27.437667",lng="-58.981425",premio="Gran Premio de Honor - Fondo Nacional de las Artes")\n\tdb.escultura.insert(nombre="Libre y forzado",fecha="19-7-1998",escultor="Gangolf, Serge",pais="B\xc3\xa9lgica",material="M\xc3\xa1rmol travertino",imagen="EsculturasFotos\\115.jpg",direccion="Av. De los Inmigrantes 1001 - Museum",lat="-27.437629",lng="-58.981168",premio="Gran Premio de Honor")\n\tdb.escultura.insert(nombre="Orfelia",fecha="1-7-1994",escultor="Garcia, Orfelia",pais="-",material="Cemento",imagen="EsculturasFotos\\116.jpg",direccion="Av. Wilde 315",lat="-27.44468",lng="-58.988208",premio="-")\n\tdb.escultura.insert(nombre="Muchacha santiague\xc3\xb1a",fecha="-",escultor="Gerstein, Noem\xc3\xad",pais="Argentina",material="Bronce",imagen="EsculturasFotos\\117.jpg",direccion="Pellegrini 235",lat="-27.450916",lng="-58.982787",premio="-")\n\tdb.escultura.insert(nombre="Uno y dos",fecha="-",escultor="Giangrande, Silvio",pais="Argentina",material="M\xc3\xa1rmol",imagen="EsculturasFotos\\118.jpg",direccion="Peatonal Arturo Ill\xc3\xada 63",lat="-27.453234",lng="-58.987758",premio="-")\n\tdb.escultura.insert(nombre="Cabeza de Einstein",fecha="0-0-1999",escultor="Glorioso, Mauro",pais="Argentina",material="Bronce",imagen="EsculturasFotos\\119.jpg",direccion="Frondizi 33",lat="-27.452259",lng="-58.985955",premio="Premio Sal\xc3\xb3n de Rosario")\n\tdb.escultura.insert(nombre="Maternidad",fecha="-",escultor="Glorioso, Mauro",pais="Argentina",material="Cemento",imagen="EsculturasFotos\\120.jpg",direccion="Juan B. Justo 80",lat="-27.452518",lng="-58.986816",premio="-")\n\tdb.escultura.insert(nombre="Y as\xc3\xad van las cosas",fecha="19-7-1996",escultor="G\xc3\xb3mez, Ra\xc3\xbal P\xc3\xa1jaro",pais="Argentina",material="Chapa ",imagen="EsculturasFotos\\121.jpg",direccion="Av. Sarmiento 300 al 400",lat="-27.448691",lng="-58.983815",premio="-")\n\tdb.escultura.insert(nombre="De la serie de las se\xc3\xb1ales",fecha="19-7-1998",escultor="G\xc3\xb3mez, Ra\xc3\xbal P\xc3\xa1jaro",pais="Argentina",material="Metal",imagen="EsculturasFotos\\122.jpg",direccion="Av. De los Inmigrantes 1001 - Museum",lat="-27.437405",lng="-58.980913",premio="Premio de los Ni\xc3\xb1os, premio Consalud - Gran Premio de Honor")\n\tdb.escultura.insert(nombre="Transformaci\xc3\xb3n",fecha="26-6-1992",escultor="G\xc3\xb3mez Lollo, Humberto",pais="Argentina",material="M\xc3\xa1rmol",imagen="EsculturasFotos\\124.jpg",direccion="Peatonal Arturo Ill\xc3\xada 1",lat="-27.452735",lng="-58.988125",premio="-")\n\tdb.escultura.insert(nombre="Viento norte",fecha="0-8-1998",escultor="G\xc3\xb3mez Lollo, Humberto",pais="Argentina",material="M\xc3\xa1rmol travertino",imagen="EsculturasFotos\\125.jpg",direccion="Av. Sarmiento 783",lat="-27.445056",lng="-58.979773",premio="-")\n\tdb.escultura.insert(nombre="Forma y espacio",fecha="-",escultor="G\xc3\xb3mez Lollo, Humberto",pais="Argentina",material="Madera",imagen="EsculturasFotos\\126.jpg",direccion="Ruta Nacional 11, Km 1003,5 - Aeropuerto Internacional Resistencia",lat="-27.444775",lng="-59.048783",premio="-")\n\tdb.escultura.insert(nombre="Tecnolito",fecha="9-6-1997",escultor="Gonzalez Salazar, Miguel Angel",pais="M\xc3\xa9xico",material="M\xc3\xa1rmol travertino",imagen="EsculturasFotos\\127.jpg",direccion="Col\xc3\xb3n 164",lat="-27.455443",lng="-58.984464",premio="Primer premio - Segunda Trienal Americana de Escultura")\n\tdb.escultura.insert(nombre="Sin t\xc3\xadtulo",fecha="19-7-1998",escultor="Gonzalez Salazar, Miguel Angel",pais="M\xc3\xa9xico",material="Granito",imagen="EsculturasFotos\\128.jpg",direccion="Av. De los Inmigrantes 1001 - Museum",lat="-27.437253",lng="-58.980484",premio="Premio Nuevo Banco del Chaco - Gran premio de Honor")\n\tdb.escultura.insert(nombre="Desnudo",fecha="-",escultor="Grillo, Juan",pais="Argentina",material="Bronce",imagen="EsculturasFotos\\129.jpg",direccion="G\xc3\xbcemes 626",lat="-27.447096",lng="-58.98021",premio="-")\n\tdb.escultura.insert(nombre="M\xc3\xa1scara",fecha="-",escultor="Grillo, Juan",pais="Argentina",material="Granito",imagen="EsculturasFotos\\130.jpg",direccion="Juan D. Per\xc3\xb3n 99",lat="-27.451985",lng="-58.989123",premio="-")\n\tdb.escultura.insert(nombre="Emiliana",fecha="-",escultor="Guzanti Tr\xc3\xadas, Norma",pais="-",material="Cemento",imagen="EsculturasFotos\\131.jpg",direccion="Remedios de Escalada 132",lat="-27.447796",lng="-58.987921",premio="-")\n\tdb.escultura.insert(nombre="Cruces",fecha="19-7-1998",escultor="Heras Velazco, Mar\xc3\xada Juana",pais="Argentina",material="Metal",imagen="EsculturasFotos\\132.jpg",direccion="Av. De los Inmigrantes 1001 - Museum",lat="-27.437267",lng="-58.980578",premio="Gran Premio de Honor")\n\tdb.escultura.insert(nombre="Formas continuas",fecha="`1978",escultor="Iommi, Enio",pais="Argentina",material="Bronce",imagen="EsculturasFotos\\133.jpg",direccion="Ruta Nacional 11, Km 1003,5 - Aeropuerto Internacional Resistencia",lat="-27.444868",lng="-59.048711",premio="-")\n\tdb.escultura.insert(nombre="Adolfo Cristaldo",fecha="00-12-89",escultor="Jara, Ricardo",pais="Argentina",material="Cemento",imagen="EsculturasFotos\\134.jpg",direccion="Av. Sarmiento 900 al 1000",lat="-27.443866",lng="-58.97844",premio="-")\n\tdb.escultura.insert(nombre="Ronda por la uni\xc3\xb3n americana",fecha="-",escultor="Jara, Ricardo",pais="Argentina",material="Cemento",imagen="EsculturasFotos\\135.jpg",direccion="Vedia 180",lat="-27.450916",lng="-58.989895",premio="-")\n\tdb.escultura.insert(nombre="Primeros pasos",fecha="-",escultor="Jara, Ricardo",pais="Argentina",material="Cemento",imagen="EsculturasFotos\\136.jpg",direccion="Av. Paraguay 45",lat="-27.447579",lng="-58.981672",premio="-")\n\tdb.escultura.insert(nombre="Crisol de razas",fecha="-",escultor="Jara, Ricardo",pais="Argentina",material="Cemento",imagen="EsculturasFotos\\137.jpg",direccion="Parque 2 de Febrero",lat="-27.439424",lng="-58.984867",premio="-")\n\tdb.escultura.insert(nombre="Recibiendo al sol",fecha="3-6-1997",escultor="Jim\xc3\xa9nez, Aquiles",pais="Costa Rica",material="M\xc3\xa1rmol travertino",imagen="EsculturasFotos\\138.jpg",direccion="Entre R\xc3\xados 635",lat="-27.443164",lng="-58.98864",premio="-")\n\tdb.escultura.insert(nombre="Maternidad",fecha="-",escultor="Jim\xc3\xa9nez, Luis",pais="Argentina",material="Granito Reconstruido",imagen="EsculturasFotos\\139.jpg",direccion="Av. Sarmiento 655",lat="-27.445965",lng="-58.980929",premio="-")\n\tdb.escultura.insert(nombre="Momento de Big Bang",fecha="29-7-1993",escultor="Johnson, H\xc3\xa9ctor",pais="Argentina",material="Piedra",imagen="EsculturasFotos\\140.jpg",direccion="Jos\xc3\xa9 Hern\xc3\xa1ndez 700",lat="-27.451238",lng="-58.974312",premio="-")\n\tdb.escultura.insert(nombre="Chacohachasol",fecha="19-7-1998",escultor="Johnson, H\xc3\xa9ctor",pais="Argentina",material="Metal",imagen="EsculturasFotos\\141.jpg",direccion="Av. De los Inmigrantes 1001 - Museum",lat="-27.439681",lng="-58.982723",premio="Gran Premio de Honor")\n\tdb.escultura.insert(nombre="Mujer espacial",fecha="7-7-1978",escultor="Ju\xc3\xa1rez, Lidia",pais="Argentina",material="Cemento",imagen="EsculturasFotos\\142.jpg",direccion="Vedia 130",lat="-27.450604",lng="-58.989531",premio="-")\n\tdb.escultura.insert(nombre="Mensaje del aire",fecha="-",escultor="Ju\xc3\xa1rez, Lidia",pais="Argentina",material="Hierro",imagen="EsculturasFotos\\143.jpg",direccion="Ruta Nacional 11, Km 1003,5 - Aeropuerto Internacional Resistencia",lat="-27.444885",lng="-59.048577",premio="-")\n\tdb.escultura.insert(nombre="Santos Vega",fecha="29-5-1969",escultor="Ju\xc3\xa1rez, Horacio",pais="Argentina",material="Cemento",imagen="EsculturasFotos\\144.jpg",direccion="G\xc3\xbcemes 160",lat="-27.4507186166981",lng="-58.984222412109375",premio="-")\n\tdb.escultura.insert(nombre="Homenaje a Domingo Candia",fecha="-",escultor="Kasem, Salvador",pais="Argentina",material="Piedra",imagen="EsculturasFotos\\145.jpg",direccion="Peatonal Juan D. Per\xc3\xb3n 99",lat="-27.451921",lng="-58.989061",premio="-")\n\tdb.escultura.insert(nombre="Castigo",fecha="`1961",escultor="Knopp, Naum",pais="Argentina",material="Cemento",imagen="EsculturasFotos\\146.jpg",direccion="Juan D. Per\xc3\xb3n 123",lat="-27.45173",lng="-58.98937",premio="-")\n\tdb.escultura.insert(nombre="Pareja en primavera",fecha="7-6-1981",escultor="Knopp, Naum",pais="Argentina",material="Bronce",imagen="EsculturasFotos\\147.jpg",direccion="Pellegrini 219",lat="-27.450978",lng="-58.982844",premio="-")\n\tdb.escultura.insert(nombre="Cosmogon\xc3\xada del agua",fecha="16-6-1969",escultor="K\xc3\xb3sice, Gyula",pais="Argentina",material="Acr\xc3\xadlico",imagen="EsculturasFotos\\148.jpg",direccion="Arturo Ill\xc3\xada 26 - Edificio Olivetti",lat="-27.453099",lng="-58.988053",premio="-")\n\tdb.escultura.insert(nombre="Pas de deux",fecha="26-6-1999",escultor="Kuhnapfel, Thomas",pais="Alemania",material="Metal",imagen="EsculturasFotos\\149.jpg",direccion="Av. De los Inmigrantes 1001 - Museum",lat="-27.437979",lng="-58.981014",premio="Segundo premio - Primera Bienal Internacional de Escultura")\n\tdb.escultura.insert(nombre="Hipop\xc3\xb3tamo",fecha="-",escultor="Labourdette, Juan Carlos",pais="Argentina",material="Granito",imagen="EsculturasFotos\\150.jpg",direccion="Av. Alberdi 201",lat="-27.452839",lng="-58.988273",premio="-")\n\tdb.escultura.insert(nombre="Visi\xc3\xb3n",fecha="4-7-1997",escultor="Lebrato, Aurelio",pais="Uruguay",material="M\xc3\xa1rmol travertino",imagen="EsculturasFotos\\151.jpg",direccion="Entre R\xc3\xados 333",lat="-27.445513",lng="-58.985948",premio="-")\n\tdb.escultura.insert(nombre="Tranquilidad",fecha="22-2-1962",escultor="Leguizam\xc3\xb3n Pondal, Gonzalo",pais="Argentina",material="M\xc3\xa1rmol",imagen="EsculturasFotos\\152.jpg",direccion="Peatonal Arturo Ill\xc3\xada 200",lat="-27.4541579706238",lng="-58.98651301860809",premio="Primer Premio Sal\xc3\xb3n Nacional 1918")\n\tdb.escultura.insert(nombre="Flor ind\xc3\xadgena",fecha="`1978",escultor="Leguizam\xc3\xb3n Pondal, Gonzalo",pais="Argentina",material="Cemento",imagen="EsculturasFotos\\153.jpg",direccion="Av. Sarmiento 800 al 900",lat="-27.444811",lng="-58.979494",premio="-")\n\tdb.escultura.insert(nombre="Ondina del barroco",fecha="-",escultor="Lewy, Aroldo",pais="Argentina",material="Bronce",imagen="EsculturasFotos\\154.jpg",direccion="Av. Sarmiento 284",lat="-27.449002",lng="-58.983895",premio="-")\n\tdb.escultura.insert(nombre="Metamorfosis",fecha="-",escultor="Locasso, Rub\xc3\xa9n",pais="Argentina",material="Cemento",imagen="EsculturasFotos\\155.jpg",direccion="Pueyrred\xc3\xb3n 2",lat="-27.449519",lng="-58.988144",premio="-")\n\tdb.escultura.insert(nombre="Competencia",fecha="6-11-2013",escultor="Manuel Benitez",pais="Argemtina",material="Madera",imagen="EsculturasFotos\\156.jpg",direccion="Av. Italia 1146",lat="-27.446072343378955",lng="-58.972012996673584",premio="-")\n\tdb.escultura.insert(nombre="Pareja",fecha="0-0-1990",escultor="Macchi, Aurelio",pais="Argentina",material="Bronce",imagen="EsculturasFotos\\157.jpg",direccion="Cordoba 766",lat="-27.45090189293449",lng="-58.974558832123876",premio="-")\n\tdb.escultura.insert(nombre="Cabeza de Aldo Moro",fecha="14-7-1961",escultor="Marchese, V\xc3\xadctor",pais="Argentina",material="Cemento",imagen="EsculturasFotos\\158.jpg",direccion="Av. Alberdi 285 - Club Social",lat="-27.453375",lng="-58.988906",premio="-")\n\tdb.escultura.insert(nombre="Cabeza de Lynch Arrib\xc3\xa1lzaga",fecha="1-9-1956",escultor="Marchese, V\xc3\xadctor",pais="Argentina",material="Cemento",imagen="EsculturasFotos\\159.jpg",direccion="Av. San Martin 0 al 100",lat="-27.455334",lng="-58.98253",premio="-")\n\tdb.escultura.insert(nombre="Fernando",fecha="28-1-1956",escultor="Marchese, V\xc3\xadctor",pais="Argentina",material="Cemento recubierto en mosaico",imagen="EsculturasFotos\\160.jpg",direccion="Brown 350 - El Fog\xc3\xb3n de los Arrieros",lat="-27.452444",lng="-58.981808",premio="-")\n\tdb.escultura.insert(nombre="Fernando",fecha="28-5-1963",escultor="Marchese, V\xc3\xadctor",pais="Argentina",material="Bronce",imagen="EsculturasFotos\\161.jpg",direccion="Mitre 1",lat="-27.450152",lng="-58.987407",premio="-")\n\tdb.escultura.insert(nombre="Cabeza de Juan de Dios Mena",fecha="4-4-1964",escultor="Marchese, V\xc3\xadctor",pais="Argentina",material="Bronce",imagen="EsculturasFotos\\162.jpg",direccion="Frondizi 99",lat="-27.452708",lng="-58.986417",premio="-")\n\tdb.escultura.insert(nombre="Tupac Amaru",fecha="-",escultor="Marchese, V\xc3\xadctor",pais="Argentina",material="Madera",imagen="EsculturasFotos\\163.jpg",direccion="Ruta Nacional 11, Km 1003,5 - Aeropuerto Internacional Resistencia",lat="-27.444887",lng="-59.048416",premio="-")\n\tdb.escultura.insert(nombre="El Naguel",fecha="-",escultor="Marino, Ricardo",pais="-",material="Cemento",imagen="EsculturasFotos\\165.jpg",direccion="Arturo Ill\xc3\xada 901",lat="-27.459906",lng="-58.980041",premio="-")\n\tdb.escultura.insert(nombre="Bordoneando, Tango",fecha="-",escultor="M\xc3\xa1rtire, Francisco",pais="-",material="Granito reconstitu\xc3\xaddo",imagen="EsculturasFotos\\166.jpg",direccion="Av. Sarmiento 100 al 200",lat="-27.449947",lng="-58.985188",premio="-")\n\tdb.escultura.insert(nombre="M\xc3\xadstico",fecha="24-7-1995",escultor="Medina Ayll\xc3\xb3n, Juan Mar\xc3\xada",pais="Espa\xc3\xb1a",material="Madera de urunday",imagen="EsculturasFotos\\167.jpg",direccion="Frondizi 30 - Zan-En S.R.L.",lat="-27.452178",lng="-58.985861",premio="Premio del P\xc3\xbablico y Escultores - Primer Concurso Internacional de Escultura en Madera")\n\tdb.escultura.insert(nombre="Jasm\xc3\xadn",fecha="28-7-1999",escultor="Modi, M\xc3\xb3nica",pais="Argentina",material="M\xc3\xa1rmol travertino",imagen="EsculturasFotos\\168.jpg",direccion="Mitre 141",lat="-27.449162",lng="-58.986206",premio="-")\n\tdb.escultura.insert(nombre="Maternidad",fecha="`1978",escultor="Monti, Alfredo",pais="Argentina",material="Cemento",imagen="EsculturasFotos\\169.jpg",direccion="Ameghino 356",lat="-27.457036",lng="-58.986899",premio="-")\n\tdb.escultura.insert(nombre="Poetisa",fecha="-",escultor="Monti, Alfredo",pais="Argentina",material="Cemento",imagen="EsculturasFotos\\170.jpg",direccion="Pellegrini 272",lat="-27.450631",lng="-58.982377",premio="-")\n\tdb.escultura.insert(nombre="Alfredo P\xc3\xa9rtile",fecha="00-12-89",escultor="Monz\xc3\xb3n, Jorge",pais="Argentina",material="Cemento",imagen="EsculturasFotos\\171.jpg",direccion="Marcelo T. De Alvear 488",lat="-27.446594",lng="-58.989727",premio="-")\n\tdb.escultura.insert(nombre="L\xc3\xb3pez Piacentini",fecha="-",escultor="Monz\xc3\xb3n, Jorge",pais="Argentina",material="Cemento",imagen="EsculturasFotos\\172.jpg",direccion="Pellegrini 211",lat="-27.451047",lng="-58.982903",premio="-")\n\tdb.escultura.insert(nombre="G\xc3\xa9nesis del Chaco",fecha="1-10-1962",escultor="Monsegur, Ra\xc3\xbal",pais="Argentina",material="Pidra, cemento, acetato de polivinilo",imagen="EsculturasFotos\\174.jpg",direccion="Plaza 25 de Mayo",lat="-27.451962",lng="-58.986168",premio="-")\n\tdb.escultura.insert(nombre="Lobo de mar",fecha="31-10-1962",escultor="Isella de Motteau, Luisa Isabel",pais="Argentina",material="Bronce",imagen="EsculturasFotos\\175.jpg",direccion="Peatonal Arturo Ill\xc3\xada 101",lat="-27.453537",lng="-58.987235",premio="-")\n\tdb.escultura.insert(nombre="La espera",fecha="19-7-1998",escultor="Nardi, Rodolfo",pais="Argentina",material="M\xc3\xa1rmol travertino y metal",imagen="EsculturasFotos\\176.jpg",direccion="Av. De los Inmigrantes 1001 - Museum",lat="-27.437548",lng="-58.981683",premio="Gran Premio de Honor")\n\tdb.escultura.insert(nombre="Forma y seducci\xc3\xb3n",fecha="-",escultor="Nardi, Rodolfo",pais="Argentina",material="Madera",imagen="EsculturasFotos\\177.jpg",direccion="Juan D. Per\xc3\xb3n  352 - Hotel Marconi",lat="-27.449780808852324",lng="-58.9911425113678",premio="Primer premio - Quinto Concurso Nacional de Escultura en Madera")\n\tdb.escultura.insert(nombre="Flor de la Puna",fecha="-",escultor="Nevot, Antonio Miguel",pais="Argentina",material="Bronce",imagen="EsculturasFotos\\178.jpg",direccion="Arturo Ill\xc3\xada 633",lat="-27.457578",lng="-58.982669",premio="-")\n\tdb.escultura.insert(nombre="Torito espacial",fecha="-",escultor="Nieto, H\xc3\xa9ctor",pais="Argentina",material="Piedra",imagen="EsculturasFotos\\179.jpg",direccion="Av. San Martin 465",lat="-27.458602",lng="-58.98599",premio="-")\n\tdb.escultura.insert(nombre="Serenidad",fecha="-",escultor="Nistal, Yan",pais="-",material="Cemento",imagen="EsculturasFotos\\180.jpg",direccion="PellegrinI 755",lat="-27.446777",lng="-58.9783",premio="-")\n\tdb.escultura.insert(nombre="La noche",fecha="-",escultor="Oriana, Antonio",pais="Argentina",material="Cemento",imagen="EsculturasFotos\\182.jpg",direccion="Brown 543",lat="-27.453856",lng="-58.979829",premio="-")\n\tdb.escultura.insert(nombre="Guanta no m\xc3\xa1s",fecha="0-04-1997",escultor="Pacheco Enciso, Juan Ernesto",pais="Per\xc3\xba",material="M\xc3\xa1rmol travertino",imagen="EsculturasFotos\\183.jpg",direccion="San Buenaventura del Monte Alto 1380",lat="-27.433106",lng="-58.983821",premio="-")\n\tdb.escultura.insert(nombre="Cabeza de mujer",fecha="-",escultor="Pag\xc3\xa9s, Mariano",pais="Argentina",material="Piedra",imagen="EsculturasFotos\\184.jpg",direccion="Arturo Ill\xc3\xada 43",lat="-27.453073",lng="-58.987857",premio="-")\n\tdb.escultura.insert(nombre="El mito ind\xc3\xadgena del fuego",fecha="-",escultor="Paladino, Constante",pais="-",material="Cemento",imagen="EsculturasFotos\\185.jpg",direccion="Plazoleta Aldo y Efra\xc3\xadn Boglietti",lat="-27.445427",lng="-58.978324",premio="-")\n\tdb.escultura.insert(nombre="Cabeza de canto al sol o El Calchaqui",fecha="10-8-1961",escultor="Perlotti, Luis",pais="Argentina",material="Piedra reconstituida",imagen="EsculturasFotos\\187.jpg",direccion="Av. Italia 150",lat="-27.453915",lng="-58.980792",premio="-")\n\tdb.escultura.insert(nombre="San Mart\xc3\xadn",fecha="14-7-1961",escultor="Perlotti, Luis",pais="Argentina",material="Bronce",imagen="EsculturasFotos\\188.jpg",direccion="Av. Alberdi 200 al 300",lat="-27.453365",lng="-58.989045",premio="-")\n\tdb.escultura.insert(nombre="Domingo Faustino Sarmiento",fecha="-",escultor="Perlotti, Luis",pais="Argentina",material="Bronce",imagen="EsculturasFotos\\189.jpg",direccion="Av. Sarmiento 100 al 200",lat="-27.450235",lng="-58.98551",premio="-")\n\tdb.escultura.insert(nombre="Busto de Paula Albarrac\xc3\xadn",fecha="\xc2\xb41961",escultor="Perlotti, Luis",pais="Argentina",material="Bronce",imagen="EsculturasFotos\\190.jpg",direccion="Plaza 25 de Mayo",lat="-27.450686",lng="-58.985794",premio="-")\n\tdb.escultura.insert(nombre="Yolanda P. De Elizondo",fecha="15-7-1994",escultor="P\xc3\xa9rez Bartolom\xc3\xa9, A\xc3\xadda",pais="Espa\xc3\xb1a",material="Bronce",imagen="EsculturasFotos\\191.jpg",direccion="D\xc3\xb3novan 433",lat="-27.451387",lng="-58.993637",premio="-")\n\tdb.escultura.insert(nombre="Empuje",fecha="6-10-1963",escultor="Pettoruti, Emilio",pais="Argentina",material="Mosaico veneciano",imagen="EsculturasFotos\\192.jpg",direccion="Marcelo T. De Alvear 145 - Casa de Gobierno",lat="-27.449202",lng="-58.987369",premio="-")\n\tdb.escultura.insert(nombre="Torso",fecha="18-8-1961",escultor="Pinnisi, Manuel",pais="Argentina",material="Piedra reconstituida",imagen="EsculturasFotos\\193.jpg",direccion="Pueyrred\xc3\xb3n 226",lat="-27.447872",lng="-58.98629",premio="-")\n\tdb.escultura.insert(nombre="Vuelo del Esp\xc3\xadritu",fecha="1-7-2002",escultor="Fabriciano",pais="Argentina",material="M\xc3\xa1rmol travertino y chapa naval",imagen="EsculturasFotos\\194.jpg",direccion="Av. Sarmiento 100 al 200",lat="-27.449797",lng="-58.985017",premio="-")\n\tdb.escultura.insert(nombre="Columna ensanch\xc3\xa1ndose en el centro",fecha="30-7-1999",escultor="Polacco, Ferruccio",pais="Argentina",material="Acero inoxidable",imagen="EsculturasFotos\\195.jpg",direccion="G\xc3\xbcemes 800",lat="-27.445637",lng="-58.978626",premio="-")\n\tdb.escultura.insert(nombre="Madre nuestra",fecha="16-7-1999",escultor="Preminger, Tanya",pais="Israel",material="M\xc3\xa1rmol travertino",imagen="EsculturasFotos\\196.jpg",direccion="Marcelo T. De Alvear 999",lat="-27.442573",lng="-58.994487",premio="Premio Consalud - Primera Bienal Internacional de Escultura")\n\tdb.escultura.insert(nombre="Figura",fecha="14-7-1961",escultor="Puig, Vicente",pais="Argentina",material="Piedra",imagen="EsculturasFotos\\197.jpg",direccion="Frondizi 1",lat="-27.452047",lng="-58.98569",premio="-")\n\tdb.escultura.insert(nombre="Cabeza de mujer",fecha="10-7-1969",escultor="Puig, Vicente",pais="Argentina",material="M\xc3\xa1rmol",imagen="EsculturasFotos\\198.jpg",direccion="Santa Mar\xc3\xada de Oro 178",lat="-27.451694",lng="-58.989029",premio="-")\n\tdb.escultura.insert(nombre="La M\xc3\xbasica",fecha="-",escultor="Puj\xc3\xada, Antonio",pais="Argentina",material="Cemento",imagen="EsculturasFotos\\199.jpg",direccion="Juan B. Justo 42",lat="-27.452327628841257",lng="-58.9870548248291",premio="-")\n\tdb.escultura.insert(nombre="Paysand\xc3\xba",fecha="-",escultor="Puyau, Amado",pais="Argentina",material="Bronce",imagen="EsculturasFotos\\200.jpg",direccion="Pellegrini 148",lat="-27.451704",lng="-58.98345",premio="-")\n\tdb.escultura.insert(nombre="Americano",fecha="27-7-1993",escultor="Quintana, Orlando",pais="Argentina",material="Piedra",imagen="EsculturasFotos\\201.jpg",direccion="Av. Wilde 268",lat="-27.445249",lng="-58.988496",premio="-")\n\tdb.escultura.insert(nombre="Familia",fecha="-",escultor="Reyes, Francisco",pais="Argentina",material="Fibrocemento",imagen="EsculturasFotos\\202.jpg",direccion="Av. Belgrano 200",lat="-27.448886",lng="-58.992763",premio="-")\n\tdb.escultura.insert(nombre="Los amantes",fecha="`1978",escultor="Reyes, Francisco",pais="Argentina",material="Cemento",imagen="EsculturasFotos\\203.jpg",direccion="Av. 9 de Julio 640",lat="-27.456298",lng="-58.98099",premio="-")\n\tdb.escultura.insert(nombre="Maternidad",fecha="-",escultor="Reyes, Francisco",pais="Argentina",material="Piedra reconstituida",imagen="EsculturasFotos\\204.jpg",direccion="Brown 351",lat="-27.452309",lng="-58.981576",premio="-")\n\tdb.escultura.insert(nombre="Reto\xc3\xb1o",fecha="-",escultor="Reyes, Francisco",pais="Argentina",material="Fibrocemento",imagen="EsculturasFotos\\205.jpg",direccion="Frondizi 175",lat="-27.453261",lng="-58.987063",premio="-")\n\tdb.escultura.insert(nombre="Ofrenda",fecha="-",escultor="Reyes, Francisco",pais="Argentina",material="Granito reconstitu\xc3\xaddo",imagen="EsculturasFotos\\206.jpg",direccion="Juan B. Justo 153",lat="-27.453087",lng="-58.986008",premio="-")\n\tdb.escultura.insert(nombre="Noemi",fecha="-",escultor="Reynal O\xc2\xb4Connor, Rafael",pais="-",material="Granito",imagen="EsculturasFotos\\207.jpg",direccion="Jos\xc3\xa9 Maria Paz 181",lat="-27.454105",lng="-58.986259",premio="-")\n\tdb.escultura.insert(nombre="Fuerza interior",fecha="19-7-1999",escultor="Ricardone, V\xc3\xadctor",pais="Argentina",material="Piedra de Mar del Plata",imagen="EsculturasFotos\\209.jpg",direccion="Santa Fe 184",lat="-27.448136",lng="-58.986306",premio="-")\n\tdb.escultura.insert(nombre="Eraclio P\xc3\xa9rez",fecha="-",escultor="Ricardone, V\xc3\xadctor",pais="Argentina",material="Cemento",imagen="EsculturasFotos\\210.jpg",direccion="Av. Sarmiento 800 al 900",lat="-27.444049",lng="-58.978633",premio="-")\n\tdb.escultura.insert(nombre="Argentina 77",fecha="-",escultor="Riva, Luis",pais="Argentina",material="Hierro",imagen="EsculturasFotos\\211.jpg",direccion="Av. Sarmiento 500 al 600",lat="-27.446889",lng="-58.981975",premio="-")\n\tdb.escultura.insert(nombre="D\xc3\xa9cada del 70",fecha="-",escultor="Riva, Luis",pais="Argentina",material="Hierro",imagen="EsculturasFotos\\212.jpg",direccion="Av. Sarmiento 500 al 600",lat="-27.446546",lng="-58.981588",premio="-")\n\tdb.escultura.insert(nombre="Lid",fecha="`1978",escultor="Riva, Luis",pais="Argentina",material="Chapa",imagen="EsculturasFotos\\213.jpg",direccion="Ruta Nacional 11, Km 1003,5 - Aeropuerto Internacional Resistencia",lat="-27.444961",lng="-59.048306",premio="-")\n\tdb.escultura.insert(nombre="Rauda",fecha="`1978",escultor="Riva, Luis",pais="Argentina",material="Chapa",imagen="EsculturasFotos\\214.jpg",direccion="Ruta Nacional 11, Km 1003,5 - Aeropuerto Internacional Resistencia",lat="-27.444932",lng="-59.048172",premio="-")\n\tdb.escultura.insert(nombre="De Ferrari palpita el cosmos",fecha="`1978",escultor="Romano, Enrique",pais="Argentina",material="Metal",imagen="EsculturasFotos\\215.jpg",direccion="Ruta Nacional 11, Km 1003,5 - Aeropuerto Internacional Resistencia",lat="-27.445065",lng="-59.048166",premio="-")\n\tdb.escultura.insert(nombre="Cabeza de Jorge Newbery",fecha="-",escultor="Rodriguez, Leonardo",pais="Argentina",material="Bronce",imagen="EsculturasFotos\\216.jpg",direccion="Av. Alberdi 282",lat="-27.453334",lng="-58.988868",premio="-")\n\tdb.escultura.insert(nombre="Remolino cat\xc3\xb3dico",fecha="22-6-1999",escultor="Romeo, Jorge",pais="Italia",material="M\xc3\xa1rmol travertino",imagen="EsculturasFotos\\217.jpg",direccion="Jos\xc3\xa9 Maria Paz 434",lat="-27.456038",lng="-58.988567",premio="-")\n\tdb.escultura.insert(nombre="Maternidad",fecha="-",escultor="Rosemberg, Lucrecia",pais="Argentina",material="Granito reconstituido",imagen="EsculturasFotos\\218.jpg",direccion="San Lorenzo 190",lat="-27.458004",lng="-58.98205",premio="-")\n\tdb.escultura.insert(nombre="Ternura",fecha="-",escultor="Rosas, Betty",pais="Argentina",material="Cer\xc3\xa1mica",imagen="EsculturasFotos\\219.jpg",direccion="Frondizi 141",lat="-27.453096",lng="-58.986878",premio="-")\n\tdb.escultura.insert(nombre="Entrega",fecha="-",escultor="Rosas, Betty",pais="Argentina",material="Cer\xc3\xa1mica",imagen="EsculturasFotos\\220.jpg",direccion="Pellegrini 246",lat="-27.450842",lng="-58.982576",premio="-")\n\tdb.escultura.insert(nombre="Maternidad",fecha="-",escultor="Rosso, Mario",pais="-",material="Granito",imagen="EsculturasFotos\\221.jpg",direccion="Brown 350 - El Fog\xc3\xb3n de los Arrieros",lat="-27.452373",lng="-58.981672",premio="-")\n\tdb.escultura.insert(nombre="El colono",fecha="-",escultor="Rovatti, Luis",pais="Argentina",material="Cemento",imagen="EsculturasFotos\\222.jpg",direccion="Av. Sarmiento y Av. Paraguay",lat="-27.447215",lng="-58.982184",premio="-")\n\tdb.escultura.insert(nombre="Adolescentes",fecha="-",escultor="Saggese, Marta",pais="-",material="Piedra reconstituida",imagen="EsculturasFotos\\223.jpg",direccion="Lop\xc3\xa9z y Planes 667",lat="-27.448222",lng="-58.978169",premio="-")\n\tdb.escultura.insert(nombre="Madre",fecha="-",escultor="Saggese, Marta",pais="-",material="Cemento",imagen="EsculturasFotos\\224.jpg",direccion="Pellegrini 168",lat="-27.451552",lng="-58.9833",premio="-")\n\tdb.escultura.insert(nombre="Mediod\xc3\xada",fecha="27-10-1961",escultor="San Luis, Nicol\xc3\xa1s de (Russo, Nicol\xc3\xa1s Antonio)",pais="Argentina",material="Bronce",imagen="EsculturasFotos\\225.jpg",direccion="Av. Alberdi 100",lat="-27.452028",lng="-58.98753",premio="-")\n\tdb.escultura.insert(nombre="La loba",fecha="-",escultor="Sassone, Antonio",pais="Argentina",material="Fibrocemento",imagen="EsculturasFotos\\226.jpg",direccion="Juan D. Per\xc3\xb3n 308",lat="-27.450204",lng="-58.990971",premio="-")\n\tdb.escultura.insert(nombre="Artista en descanso",fecha="-",escultor="Scalisi, Armando",pais="-",material="Cemento",imagen="EsculturasFotos\\227.jpg",direccion="Pueyrred\xc3\xb3n 139",lat="-27.448471",lng="-58.987152",premio="-")\n\tdb.escultura.insert(nombre="Mujer de campo",fecha="23-12-1999",escultor="Scarano, Ra\xc3\xbal",pais="Argentina",material="M\xc3\xa1rmol",imagen="EsculturasFotos\\228.jpg",direccion="Av. Lavalle 415",lat="-27.441781",lng="-58.98319",premio="-")\n\tdb.escultura.insert(nombre="Hacherito",fecha="10-8-1961",escultor="Schenone, Carlos",pais="Argentina",material="Madera de quebracho colorado",imagen="EsculturasFotos\\229.jpg",direccion="Brown 207",lat="-27.45123",lng="-58.982793",premio="-")\n\tdb.escultura.insert(nombre="Cacique Joven",fecha="3-8-1956",escultor="Schenone, Carlos",pais="Argentina",material="Madera de quebracho colorado",imagen="EsculturasFotos\\230.jpg",direccion="Plaza 25 de Mayo",lat="-27.451399",lng="-58.985882",premio="-")\n\tdb.escultura.insert(nombre="Columna ritual",fecha="17-6-1997",escultor="Secretan, Francine",pais="Bolivia",material="M\xc3\xa1rmol travertino",imagen="EsculturasFotos\\231.jpg",direccion="Frondizi 980",lat="-27.459618",lng="-58.994311",premio="-")\n\tdb.escultura.insert(nombre="Pez guerrero",fecha="0-0-1991",escultor="Sedlacek, Wenceslao",pais="Argentina",material="Bronce",imagen="EsculturasFotos\\232.jpg",direccion="Mitre 298",lat="-27.447325",lng="-58.983978",premio="-")\n\tdb.escultura.insert(nombre="Conexi\xc3\xb3n",fecha="-",escultor="Soans, Jaak",pais="Estonia",material="Metal",imagen="EsculturasFotos\\233.jpg",direccion="Av. De los Inmigrantes 1001 - Museum",lat="-27.437584",lng="-58.981318",premio="Premio Nuevo Banco del Chaco - Primera Bienal Internacional de Escultura")\n\tdb.escultura.insert(nombre="Toro",fecha="-",escultor="Solis, Manuel",pais="Argentina",material="Acero modelado",imagen="EsculturasFotos\\234.jpg",direccion="Ruta Nacional 11, Km 1003,5 - Aeropuerto Internacional Resistencia",lat="-27.445054",lng="-59.048392",premio="-")\n\tdb.escultura.insert(nombre="Adelfa",fecha="-",escultor="Solis, Manuel",pais="Argentina",material="Acero modelado",imagen="EsculturasFotos\\235.jpg",direccion="Ruta Nacional 11, Km 1003,5 - Aeropuerto Internacional Resistencia",lat="-27.444977",lng="-59.048469",premio="-")\n\tdb.escultura.insert(nombre="En busca del sol",fecha="19-7-1998",escultor="Sotelo, Walter",pais="Argentina",material="Granito y metal",imagen="EsculturasFotos\\236.jpg",direccion="Av. De los Inmigrantes 1001 - Museum",lat="-27.437560015367378",lng="-58.98170423693955",premio="Gran Premio de Honor")\n\tdb.escultura.insert(nombre="Trascendencia",fecha="0-0-1983",escultor="Sotelo, Walter",pais="Argentina",material="Cemento",imagen="EsculturasFotos\\237.jpg",direccion="Los Hacheros 226",lat="-27.460839",lng="-58.979665",premio="-")\n\tdb.escultura.insert(nombre="Figura",fecha="-",escultor="Sotelo, Walter",pais="Argentina",material="Madera de algarrobo",imagen="EsculturasFotos\\238.jpg",direccion="Ruta Nacional 11, Km 1003,5 - Aeropuerto Internacional Resistencia",lat="-27.444989",lng="-59.048625",premio="-")\n\tdb.escultura.insert(nombre="Danza",fecha="-",escultor="Su\xc3\xa1rez Marsal, Enrique",pais="-",material="Piedra Reconstruida",imagen="EsculturasFotos\\239.jpg",direccion="Marcelo T. De Alvear 128",lat="-27.449229",lng="-58.986787",premio="-")\n\tdb.escultura.insert(nombre="Maternidad",fecha="-",escultor="Svetlich, Oscar",pais="-",material="Granito Reconstruido",imagen="EsculturasFotos\\240.jpg",direccion="Av. Wilde 30",lat="-27.447077",lng="-58.990598",premio="-")\n\tdb.escultura.insert(nombre="Tres torsos",fecha="`1978",escultor="Tidone, Sepuccio",pais="Argentina",material="Cemento",imagen="EsculturasFotos\\243.jpg",direccion="D\xc3\xb3novan 420",lat="-27.451311",lng="-58.993561",premio="-")\n\tdb.escultura.insert(nombre="El Yupay",fecha="-",escultor="Toledo Guma, Nilda",pais="-",material="M\xc3\xa1rmol reconstituido",imagen="EsculturasFotos\\244.jpg",direccion="Cangallo 636",lat="-27.450645",lng="-58.998123",premio="-")\n\tdb.escultura.insert(nombre="(Los inmigrantes), Chaco Naciente",fecha="2-2-1978",escultor="Torre, Eddie",pais="Argentina",material="Chapa",imagen="EsculturasFotos\\245.jpg",direccion="Av. Avalos y Av. Lavalle",lat="-27.438526",lng="-58.986575",premio="-")\n\tdb.escultura.insert(nombre="General Jos\xc3\xa9 Mar\xc3\xada Paz",fecha="30-8-1985",escultor="Torre, Eddie",pais="Argentina",material="Chapa batida",imagen="EsculturasFotos\\246.jpg",direccion="Av. 9 de Julio 640 - E.N.S 76 Jos\xc3\xa9 M. Paz",lat="-27.456236",lng="-58.981205",premio="-")\n\tdb.escultura.insert(nombre="El Quijote",fecha="12-10-1980",escultor="Torre, Eddie",pais="Argentina",material="Cemento- Metal",imagen="EsculturasFotos\\247.jpg",direccion="Plaza Espa\xc3\xb1a",lat="-27.457647",lng="-58.986543",premio="-")\n\tdb.escultura.insert(nombre="Maternidad",fecha="-",escultor="Vaira, Celestino",pais="-",material="Cemento",imagen="EsculturasFotos\\248.jpg",direccion="Roque Saenz Pe\xc3\xb1a 240",lat="-27.455312",lng="-58.986095",premio="-")\n\tdb.escultura.insert(nombre="Madre e hijo",fecha="-",escultor="Vaira, Celestino",pais="-",material="Cemento",imagen="EsculturasFotos\\249.jpg",direccion="Av. Italia 1265",lat="-27.445042",lng="-58.971228",premio="-")\n\tdb.escultura.insert(nombre="Ausencia",fecha="-",escultor="Valderrey, Enrique",pais="Argentina",material="Cemento",imagen="EsculturasFotos\\250.jpg",direccion="C\xc3\xb3rdoba 673",lat="-27.450795",lng="-58.974513",premio="-")\n\tdb.escultura.insert(nombre="De la calle",fecha="7-6-1981",escultor="Valderrey, Enrique",pais="Argentina",material="Cemento",imagen="EsculturasFotos\\251.jpg",direccion="Pellegrini 230",lat="-27.450988",lng="-58.982739",premio="-")\n\tdb.escultura.insert(nombre="Figura",fecha="-",escultor="Valderrey, Enrique",pais="Argentina",material="Cemento",imagen="EsculturasFotos\\252.jpg",direccion="Av. Sarmiento 600 al 700",lat="-27.446327",lng="-58.981216",premio="-")\n\tdb.escultura.insert(nombre="Las puertas del alma",fecha="20-10-1999",escultor="Vallone, Susana",pais="Argentina",material="M\xc3\xa1rmol travertino",imagen="EsculturasFotos\\253.jpg",direccion="Brown 282",lat="-27.451761",lng="-58.982418",premio="-")\n\tdb.escultura.insert(nombre="Figura en la playa",fecha="27-10-1961",escultor="Vanz, Eros Rub\xc3\xa9n",pais="Argentina",material="Cemento",imagen="EsculturasFotos\\254.jpg",direccion="Peatonal Arturo Ill\xc3\xada 199",lat="-27.45412",lng="-58.986551",premio="-")\n\tdb.escultura.insert(nombre="La amistad",fecha="-",escultor="Vanzo, Julio",pais="Argentina",material="Mosaico veneciano",imagen="EsculturasFotos\\255.jpg",direccion="Brown 350 - El Fog\xc3\xb3n de los Arrieros",lat="-27.45248",lng="-58.981843",premio="-")\n\tdb.escultura.insert(nombre="Homenaje a una primavera",fecha="-",escultor="Vega, Selva",pais="Argentina",material="Cemento",imagen="EsculturasFotos\\256.jpg",direccion="Av. Sarmiento 200 al 300",lat="-27.448907",lng="-58.984048",premio="-")\n\tdb.escultura.insert(nombre="Busto de Brown",fecha="-",escultor="Vergottini, Julio C\xc3\xa9sar",pais="Argentina",material="Cemento",imagen="EsculturasFotos\\257.jpg",direccion="Av. Sarmiento 200 al 300",lat="-27.449509",lng="-58.984668",premio="-")\n\tdb.escultura.insert(nombre="Raza madre",fecha="-",escultor="Vergottini, Julio C\xc3\xa9sar",pais="Argentina",material="Bronce",imagen="EsculturasFotos\\258.jpg",direccion="Av. 9 de Julio 100",lat="-27.452018",lng="-58.985564",premio="-")\n\tdb.escultura.insert(nombre="La conquista del monte",fecha="-",escultor="Vergottini, Julio C\xc3\xa9sar",pais="Argentina",material="Bronce",imagen="EsculturasFotos\\259.jpg",direccion="Av. 9 de Julio 100",lat="-27.45203",lng="-58.985518",premio="-")\n\tdb.escultura.insert(nombre="La ocupaci\xc3\xb3n de la tierra",fecha="-",escultor="Vergottini, Julio C\xc3\xa9sar",pais="Argentina",material="Bronce",imagen="EsculturasFotos\\260.jpg",direccion="Av. 9 de Julio 100",lat="-27.451987",lng="-58.985572",premio="-")\n\tdb.escultura.insert(nombre="La cosecha del algod\xc3\xb3n",fecha="-",escultor="Vergottini, Julio C\xc3\xa9sar",pais="Argentina",material="Bronce",imagen="EsculturasFotos\\261.jpg",direccion="Av. 9 de Julio 100",lat="-27.451997",lng="-58.985529",premio="-")\n\tdb.escultura.insert(nombre="Impulso vital",fecha="30-6-1999",escultor="Verhelst, Eric",pais="B\xc3\xa9lgica",material="M\xc3\xa1rmol travertino",imagen="EsculturasFotos\\262.jpg",direccion="Pellegrini 316",lat="-27.450274",lng="-58.981953",premio="Tercer premio - Primera Bienal Internacional de Escultura")\n\tdb.escultura.insert(nombre="Dimensi\xc3\xb3n",fecha="8-7-1997",escultor="Vildoza, N\xc3\xa9stor",pais="Argentina",material="M\xc3\xa1rmol travertino",imagen="EsculturasFotos\\263.jpg",direccion="Marcelo T. De Alvear 750",lat="-27.444501",lng="-58.992119",premio="-")\n\tdb.escultura.insert(nombre="Natural",fecha="00-12-2002",escultor="Vildoza, N\xc3\xa9stor",pais="Argentina",material="Madera",imagen="EsculturasFotos\\264.jpg",direccion="Av. De los Inmigrantes 1001 - Museum",lat="-27.436951",lng="-58.981409",premio="Segundo premio - Primera Trienal Nacional de Escultura en Madera")\n\tdb.escultura.insert(nombre="Caribe",fecha="23-6-1997",escultor="Villa Sober\xc3\xb3n, Jos\xc3\xa9",pais="Cuba",material="M\xc3\xa1rmol travertino",imagen="EsculturasFotos\\265.jpg",direccion="Av. V\xc3\xa9lez S\xc3\xa1rfield 41",lat="-27.456962",lng="-58.97921",premio="Tercer premio - Segunda Trienal Americana de Escultura")\n\tdb.escultura.insert(nombre="Habanera",fecha="19-7-1998",escultor="Villa Sober\xc3\xb3n, Jos\xc3\xa9",pais="Cuba",material="M\xc3\xa1rmol travertino y metal",imagen="EsculturasFotos\\266.jpg",direccion="Av. De los Inmigrantes 1001 - Museum",lat="-27.437498",lng="-58.981589",premio="Gran Premio de Honor")\n\tdb.escultura.insert(nombre="Nexo interior",fecha="-",escultor="Vinci, Leo",pais="Argentina",material="Piedra reconstituida",imagen="EsculturasFotos\\267.jpg",direccion="Ruta Nacional 11, Km 1003,5 - Aeropuerto Internacional Resistencia",lat="-27.444908",lng="-59.048848",premio="-")\n\tdb.escultura.insert(nombre="Liberaci\xc3\xb3n de la forma",fecha="0-06-1997",escultor="Viracocha Quispe, Luis Alberto",pais="Ecuador",material="M\xc3\xa1rmol travertino",imagen="EsculturasFotos\\268.jpg",direccion="Remedios de Escalada 610",lat="-27.44407",lng="-58.983702",premio="-")\n\tdb.escultura.insert(nombre="Centauro",fecha="-",escultor="Viola, Roberto",pais="Argentina",material="Bronce",imagen="EsculturasFotos\\269.jpg",direccion="Av. 9 de Julio 236",lat="-27.453035",lng="-58.98458",premio="-")\n\tdb.escultura.insert(nombre="Tiempo",fecha="19-7-1998",escultor="Vivern, Alfi",pais="Brasil",material="M\xc3\xa1rmol travertino",imagen="EsculturasFotos\\270.jpg",direccion="Av. De los Inmigrantes 1001 - Museum",lat="-27.437412",lng="-58.981466",premio="-")\n\tdb.escultura.insert(nombre="Mujer",fecha="-",escultor="Vozzo, Hilario",pais="Argentina",material="Cemento",imagen="EsculturasFotos\\271.jpg",direccion="Av. Sarmiento 700 al 800",lat="-27.445563",lng="-58.980336",premio="-")\n\tdb.escultura.insert(nombre="Joven",fecha="-",escultor="Zonza Briano, Pedro",pais="Argentina",material="Bronce",imagen="EsculturasFotos\\272.jpg",direccion="Lop\xc3\xa9z y Planes 247",lat="-27.451516",lng="-58.981814",premio="-")\n\tdb.escultura.insert(nombre="Post Guerra",fecha="-",escultor="Andina, Emilio",pais="Argentina",material="Bronce",imagen="EsculturasFotos\\273.jpg",direccion="Av. Paraguay 65",lat="-27.447646",lng="-58.981597",premio="-")\n\tdb.escultura.insert(nombre="Mariscal Francisco Solano L\xc3\xb3pez",fecha="14-5-1974",escultor="-",pais="-",material="Cemento",imagen="EsculturasFotos\\274.jpg",direccion="Av. Italia 500",lat="-27.451104",lng="-58.977801",premio="-")\n\tdb.escultura.insert(nombre="Busto del General San Mart\xc3\xadn",fecha="-",escultor="-",pais="-",material="Bronce",imagen="EsculturasFotos\\275.jpg",direccion="Brown 520",lat="-27.453734",lng="-58.980162",premio="-")\n\tdb.escultura.insert(nombre="Bocha",fecha="`1978",escultor="Bronge",pais="-",material="Bronce",imagen="EsculturasFotos\\276.jpg",direccion="D\xc3\xb3novan 421 - Plaza 9 de Julio",lat="-27.451328",lng="-58.993784",premio="-")\n\tdb.escultura.insert(nombre="Dante Alighieri",fecha="27-10-1983",escultor="-",pais="-",material="Bronce",imagen="EsculturasFotos\\277.jpg",direccion="Arturo Ill\xc3\xada 912",lat="-27.460058",lng="-58.980068",premio="-")\n\tdb.escultura.insert(nombre="General San Mart\xc3\xadn",fecha="-",escultor="-",pais="-",material="Bronce",imagen="EsculturasFotos\\278.jpg",direccion="Plaza 25 de Mayo",lat="-27.451128",lng="-58.986557",premio="-")\n\tdb.escultura.insert(nombre="General D\xc3\xb3novan",fecha="\xc2\xb41910",escultor="-",pais="-",material="Bronce",imagen="EsculturasFotos\\279.jpg",direccion="Plaza 25 de Mayo",lat="-27.450073",lng="-58.986641",premio="-")\n\tdb.escultura.insert(nombre="Guemes",fecha="-",escultor="Sanchez, Juan de Mar\xc3\xada",pais="Argentina",material="Cemento",imagen="EsculturasFotos\\280.jpg",direccion="Plaza 25 de Mayo",lat="-27.451609",lng="-58.985859",premio="-")\n\tdb.escultura.insert(nombre="Cabeza de Alberdi",fecha="26-8-1982",escultor="-",pais="-",material="Bronce",imagen="EsculturasFotos\\281.jpg",direccion="Plaza 25 de Mayo",lat="-27.451803",lng="-58.987061",premio="-")\n\tdb.escultura.insert(nombre="Hip\xc3\xb3lito Yrigoyen",fecha="00-07-1998",escultor="-",pais="-",material="Cemento",imagen="EsculturasFotos\\282.jpg",direccion="Plaza 25 de Mayo",lat="-27.450914",lng="-58.985565",premio="-")\n\tdb.escultura.insert(nombre="La loba romana",fecha="20-9-1920",escultor="-",pais="-",material="Piedra",imagen="EsculturasFotos\\283.jpg",direccion="Plaza 25 de Mayo",lat="-27.451338",lng="-58.985538",premio="-")\n\tdb.escultura.insert(nombre="Venus",fecha="-",escultor="Callgrain",pais="-",material="M\xc3\xa1rmol reconstitu\xc3\xaddo",imagen="EsculturasFotos\\284.jpg",direccion="Plaza 25 de Mayo",lat="-27.451603",lng="-58.986778",premio="-")\n\tdb.escultura.insert(nombre="Dorrego",fecha="-",escultor="-",pais="-",material="Cemento",imagen="EsculturasFotos\\285.jpg",direccion="Plaza 12 de Octubre",lat="-27.444162",lng="-58.986561",premio="-")\n\tdb.escultura.insert(nombre="Cazador \xc3\xb3 Conderies D\xc2\xb4Art Luval D\xc2\xb4Osne",fecha="-",escultor="Hamar, F.",pais="Francia",material="Hierro fundido",imagen="EsculturasFotos\\286.jpg",direccion="Plaza 25 de Mayo",lat="-27.451723",lng="-58.986385",premio="-")\n\tdb.escultura.insert(nombre="Monumento al General San Mart\xc3\xadn",fecha="-",escultor="Tommasi, Leone",pais="Italia",material="M\xc3\xa1rmol",imagen="EsculturasFotos\\287.jpg",direccion="Ruta Nacional 11, Km 1003,5 - Aeropuerto Internacional Resistencia",lat="-27.44493",lng="-59.024104",premio="-")\n\tdb.escultura.insert(nombre="General Jos\xc3\xa9 de San Mart\xc3\xadn",fecha="-",escultor="Mariscal, Jos\xc3\xa9",pais="-",material="Cemento",imagen="EsculturasFotos\\288.jpg",direccion="Marcelo T. De Alvear 145 - Casa de Gobierno",lat="-27.44911",lng="-58.987269",premio="-")\n\tdb.escultura.insert(nombre="Juan Manuel de Rosas",fecha="20-11-1973",escultor="G\xc3\xb3mez Lollo, Humberto",pais="Argentina",material="Cemento",imagen="EsculturasFotos\\289.jpg",direccion="Plaza 9 de Julio",lat="-27.451076",lng="-58.994434",premio="-")\n\tdb.escultura.insert(nombre="Monumento al General Belgrano",fecha="-",escultor="-",pais="-",material="Bronce",imagen="EsculturasFotos\\290.jpg",direccion="Plaza Belgrano",lat="-27.450357",lng="-58.97961",premio="-")\n\tdb.escultura.insert(nombre="Madre Patria",fecha="-",escultor="Tommasi, Leone",pais="-",material="M\xc3\xa1rmol",imagen="EsculturasFotos\\291.jpg",direccion="Av. 9 de Julio y Av. Espa\xc3\xb1a",lat="-27.483001",lng="-58.950451",premio="-")\n\tdb.escultura.insert(nombre="La guitarra del T\xc3\xado Julio",fecha="-",escultor="Oplanich, Adriana",pais="Argentina",material="Cemento",imagen="EsculturasFotos\\292.JPG",direccion="Av. Velez Sarfiel 100",lat="-27.456474",lng="-58.978386",premio="-")\n\tdb.escultura.insert(nombre="Encuentro",fecha="00-10-2000",escultor="Fabriciano",pais="Argentina",material="Metal",imagen="EsculturasFotos\\293.JPG",direccion="Jos\xc3\xa9 Hern\xc3\xa1ndez 1800 al 1900",lat="-27.44134",lng="-58.963524",premio="-")\n\tdb.escultura.insert(nombre="Pareja en la ventana",fecha="00-08-2003",escultor="Fabriciano",pais="Argentina",material="M\xc3\xa1rmol travertino y granito",imagen="EsculturasFotos\\294.JPG",direccion="Cacique \xc3\x91ar\xc3\xa9 111",lat="-27.434903",lng="-58.981015",premio="-")\n\tdb.escultura.insert(nombre="Burocracia II",fecha="-",escultor="Cabrera Castillo, Dolores",pais="Argentina",material="Madera",imagen="EsculturasFotos\\295.JPG",direccion="Av. De los Inmigrantes 1001 - Museum",lat="-27.436932",lng="-58.981474",premio="Primer premio - Sexto Concurso Nacional de Escultura en Madera")\n\tdb.escultura.insert(nombre="Eva Peron",fecha="29-6-2001",escultor="Alfredo Secreto",pais="-",material="Bronce",imagen="EsculturasFotos\\296.JPG",direccion="Plaza 25 de Mayo",lat="-27.451221",lng="-58.987816",premio="-")\n\tdb.escultura.insert(nombre="Homenaje a ex-combatientes de Malvinas",fecha="-",escultor="Fabriciano",pais="Argentina",material="Granito - Marmol",imagen="EsculturasFotos\\297.JPG",direccion="Plaza 25 de Mayo",lat="-27.452299",lng="-58.986671",premio="-")\n\tdb.escultura.insert(nombre="Busto del Gral. Don Jos\xc3\xa9 de San Mart\xc3\xadn",fecha="17-8-2000",escultor="-",pais="-",material="Cemento",imagen="EsculturasFotos\\298.JPG",direccion="Av. Rivadavia 226",lat="-27.445406",lng="-58.984059",premio="-")\n\tdb.escultura.insert(nombre="Juego envolvente",fecha="20-12-1999",escultor="Polacco, Ferruccio",pais="Argentina",material="Acero inoxidable",imagen="EsculturasFotos\\299.JPG",direccion="Av. Sarmiento y ruta Nicolas Avellaneda",lat="-27.421921",lng="-58.957296",premio="-")\n\tdb.escultura.insert(nombre="Cuando cantaba el N`vik\xc3\xa9",fecha="11-7-1997",escultor="Eidman, Mimo",pais="Argentina",material="Metal",imagen="EsculturasFotos\\300.JPG",direccion="Av. Sarmiento y ruta Nicolas Avellaneda",lat="-27.421433",lng="-58.957765",premio="-")\n\tdb.escultura.insert(nombre="Espiritu Santo",fecha="-",escultor="An\xc3\xb3nimo",pais="-",material="Piedra roja",imagen="EsculturasFotos\\301.JPG",direccion="Brown 350 - El Fog\xc3\xb3n de los Arrieros",lat="-27.45237",lng="-58.981725",premio="-")\n\tdb.escultura.insert(nombre="Tensi\xc3\xb3n",fecha="-",escultor="Torre, Eddie",pais="Argentina",material="Mosaico y cemento blanco, negro y gris.  Sobre relieve",imagen="EsculturasFotos\\302.JPG",direccion="Brown 350 - El Fog\xc3\xb3n de los Arrieros",lat="-27.452463",lng="-58.981728",premio="-")\n\tdb.escultura.insert(nombre="Abatimiento",fecha="`1978",escultor="Riva, Luis",pais="Argentina",material="Chapa",imagen="EsculturasFotos\\303.JPG",direccion="Ruta Nacional 11, Km 1003,5 - Aeropuerto Internacional Resistencia",lat="-27.444789",lng="-59.048901",premio="-")\n\tdb.escultura.insert(nombre="Beirut",fecha="00-11-2000",escultor="Basbous, Anachar",pais="L\xc3\xadbano",material="M\xc3\xa1rmol travertino",imagen="EsculturasFotos\\304.JPG",direccion="Av. Lavalle 599",lat="-27.44034",lng="-58.984791",premio="-")\n\tdb.escultura.insert(nombre="Dr. Perrando",fecha="-",escultor="Schenone, Carlos",pais="Argentina",material="Madera",imagen="EsculturasFotos\\305.JPG",direccion="Av. 9 de Julio 1101 - Hospital Julio C. Perrando",lat="-27.45952",lng="-58.976562",premio="-")\n\tdb.escultura.insert(nombre="Composici\xc3\xb3n",fecha="-",escultor="Macchi, Aurelio",pais="Argentina",material="Piedra reconstituida",imagen="EsculturasFotos\\306.JPG",direccion="Brown 350 - El Fog\xc3\xb3n de los Arrieros",lat="-27.45243",lng="-58.981768",premio="-")\n\tdb.escultura.insert(nombre="La Ramona",fecha="-",escultor="Dominguez, Lorenzo",pais="-",material="Piedra roja",imagen="EsculturasFotos\\307.JPG",direccion="Brown 350 - El Fog\xc3\xb3n de los Arrieros",lat="-27.452399",lng="-58.981683",premio="-")\n\tdb.escultura.insert(nombre="Amantes",fecha="-",escultor="Fabriciano",pais="Argentina",material="Madera",imagen="EsculturasFotos\\309.JPG",direccion="Marcelo T. De Alvear 145 - Casa de Gobierno",lat="-27.449293",lng="-58.987286",premio="-")\n\tdb.escultura.insert(nombre="El pan",fecha="-",escultor="Sotelo, Walter",pais="Argentina",material="Madera",imagen="EsculturasFotos\\310.JPG",direccion="Frondizi 399",lat="-27.455031",lng="-58.988968",premio="-")\n\tdb.escultura.insert(nombre="Tanino",fecha="-",escultor="Arena, Domingo",pais="Argentina",material="Madera",imagen="EsculturasFotos\\311.JPG",direccion="Marcelo T. De Alvear 145 - Casa de Gobierno",lat="-27.449381",lng="-58.987194",premio="-")\n\tdb.escultura.insert(nombre="Sobrerrelieve de Juan B. Justo",fecha="-",escultor="-",pais="-",material="Bronce",imagen="EsculturasFotos\\312.JPG",direccion="Juan B. Justo 10",lat="-27.452126",lng="-58.987274",premio="-")\n\tdb.escultura.insert(nombre="Sonido del tiempo",fecha="`Octubre 2001",escultor="Fabriciano",pais="Argentina",material="Metal y Resina",imagen="EsculturasFotos\\313.JPG",direccion="Sgto. Cabral y San Francisco Solano - Parque Ecol\xc3\xb3gico Villa Prosperidad",lat="-27.451263",lng="-58.970455",premio="-")\n\tdb.escultura.insert(nombre="Busto de Eva Duarte de Peron",fecha="-",escultor="-",pais="-",material="Cemento",imagen="EsculturasFotos\\314.JPG",direccion="Av. Alberdi 200",lat="-27.45259420846807",lng="-58.98815184831619",premio="-")\n\tdb.escultura.insert(nombre="Busto de Juan Domingo Peron",fecha="-",escultor="-",pais="-",material="Cemento",imagen="EsculturasFotos\\315.JPG",direccion="Av. Alberdi 200",lat="-27.452575167087513",lng="-58.98817598819733",premio="-")\n\tdb.escultura.insert(nombre="Cabeza de Aldo",fecha="-",escultor="Reyes, Francisco",pais="Argentina",material="Bronce",imagen="EsculturasFotos\\316.JPG",direccion="Brown 350 - El Fog\xc3\xb3n de los Arrieros",lat="-27.452373",lng="-58.981774",premio="-")\n\tdb.escultura.insert(nombre="Figura Abstracta",fecha="-",escultor="Marchese, V\xc3\xadctor",pais="Argentina",material="Madera",imagen="EsculturasFotos\\317.JPG",direccion="Brown 350 - El Fog\xc3\xb3n de los Arrieros",lat="-27.452435",lng="-58.981707",premio="-")\n\tdb.escultura.insert(nombre="Homenaje a Trento - Encuentros II",fecha="-",escultor="Fabriciano",pais="Argentina",material="Cemento- Marmol ",imagen="EsculturasFotos\\318.JPG",direccion="Av. Avalos 520",lat="-27.440788",lng="-58.988847",premio="-")\n\tdb.escultura.insert(nombre="-",fecha="-",escultor="Torre, Eddie",pais="Argentina",material="Chapa batida",imagen="EsculturasFotos\\319.JPG",direccion="Marcelo T. De Alvear 145 - Casa de Gobierno",lat="-27.449162",lng="-58.987426",premio="-")\n\tdb.escultura.insert(nombre="Despojamiento Cortical",fecha="-",escultor="Torre, Eddie",pais="Argentina",material="Chapa batida",imagen="EsculturasFotos\\320.JPG",direccion="Marcelo T. De Alvear 84 - Casa de las Culturas ",lat="-27.449619",lng="-58.986132",premio="-")\n\tdb.escultura.insert(nombre="L\xc3\xadmite",fecha="4-11-1961",escultor="Pilone, Alberto",pais="-",material="Cemento sobre estructura de hierro",imagen="EsculturasFotos\\321.JPG",direccion="Brown 350 - El Fog\xc3\xb3n de los Arrieros",lat="-27.452394",lng="-58.981808",premio="-")\n\tdb.escultura.insert(nombre="Figura en movimiento",fecha="-",escultor="Arena, Domingo",pais="Argentina",material="Madera",imagen="EsculturasFotos\\322.JPG",direccion="Marcelo T. De Alvear 145 - Casa de Gobierno",lat="-27.449859",lng="-58.987256",premio="-")\n\tdb.escultura.insert(nombre="Mellizos",fecha="-",escultor="Litwiniuk, Ryszard",pais="Polonia",material="M\xc3\xa1rmol travertino",imagen="EsculturasFotos\\323.JPG",direccion="Eva Peron 145 - B\xc2\xba Mujeres Argentinas/ Centro Comercial",lat="-27.462967",lng="-58.948153",premio="Premio del Fondo Nacional de las Artes")\n\tdb.escultura.insert(nombre="Yolanda De Elizondo",fecha="0-11-1989",escultor="Monz\xc3\xb3n, Jorge",pais="Argentina",material="Cemento",imagen="EsculturasFotos\\324.JPG",direccion="Roque Saenz Pe\xc3\xb1a 276",lat="-27.455546",lng="-58.986315",premio="-")\n\tdb.escultura.insert(nombre="Navegando el Alma",fecha="-",escultor="Tufan, Kemal",pais="Turqu\xc3\xada",material="M\xc3\xa1rmol travertino",imagen="EsculturasFotos\\325.JPG",direccion="Av. Alberdi 462",lat="-27.454741",lng="-58.990451",premio="Segundo premio - Bienal de Escultura")\n\tdb.escultura.insert(nombre="Modelando",fecha="-",escultor="Medina, Ana Mar\xc3\xada",pais="Argentina",material="Cemento",imagen="EsculturasFotos\\326.JPG",direccion="Av. Belgrano 36",lat="-27.447429",lng="-58.991306",premio="-")\n\tdb.escultura.insert(nombre="Instante en la vida de una mujer",fecha="-",escultor="Susana D\xc3\xadaz",pais="Argentina",material="Cemento",imagen="EsculturasFotos\\327.JPG",direccion="Saavedra 741",lat="-27.452218",lng="-58.974846",premio="-")\n\tdb.escultura.insert(nombre="Entrada y salida de Jerusalem",fecha="-",escultor="Brown, Igor",pais="Rusia",material="M\xc3\xa1rmol travertino",imagen="EsculturasFotos\\328.JPG",direccion="Av. Laprida 410",lat="-27.448015",lng="-58.975747",premio="Premio Tel Cel - Primera Bienal Internacional de Escultura")\n\tdb.escultura.insert(nombre="Paco",fecha="-",escultor="Oplanich, Adriana",pais="Argentina",material="Cemento",imagen="EsculturasFotos\\329.JPG",direccion="Arturo Ill\xc3\xada 626",lat="-27.457626",lng="-58.982822",premio="-")\n\tdb.escultura.insert(nombre="La Ilusion",fecha="-",escultor="Vallone, Susana",pais="Argentina",material="Recina",imagen="EsculturasFotos\\330.JPG",direccion="Av. 25 de Mayo 473",lat="-27.447589",lng="-58.99069",premio="-")\n\tdb.escultura.insert(nombre="Sube y baja con dos perros",fecha="-",escultor="Smidt, Pablo",pais="Argentina",material="Madera y resina",imagen="EsculturasFotos\\331.JPG",direccion="Av. De los Inmigrantes 1001 - Museum",lat="-27.436977",lng="-58.981556",premio="-")\n\tdb.escultura.insert(nombre="Homenaje a\xe2\x80\xa6",fecha="-",escultor="Fabriciano",pais="Argentina",material="M\xc3\xa1rmol travertino",imagen="EsculturasFotos\\332.JPG",direccion="Av. Laprida 222 - Veterinaria Corsi",lat="-27.446675",lng="-58.977627",premio="-")\n\tdb.escultura.insert(nombre="Busto del Almirante Guillermo Brown",fecha="-",escultor="Vergottini, Julio C\xc3\xa9sar",pais="-",material="Bronce",imagen="EsculturasFotos\\333.JPG",direccion="Miguel Can\xc3\xa9 480 - Escuela de Comercio N\xc2\xba 1/ C.E.P N\xc2\xba 72 Almirante Brown (Barranqueras)",lat="-27.487917",lng="-58.936297",premio="-")\n\tdb.escultura.insert(nombre="Gral. Enrique Luzuriaga ",fecha="-",escultor="Acosta, Miguel Angel",pais="Argentina",material="Cemento",imagen="EsculturasFotos\\334.JPG",direccion="Av. Alberdi 400 al 500",lat="-27.454886",lng="-58.990743",premio="-")\n\tdb.escultura.insert(nombre="Sin t\xc3\xadtulo",fecha="20-12-2000",escultor="Pruden, Kalle Priit",pais="Estonia",material="Metal",imagen="EsculturasFotos\\335.JPG",direccion="Av. Chaco 1650 - B\xc2\xba Italo Argentino",lat="-27.47656",lng="-58.987863",premio="-")\n\tdb.escultura.insert(nombre="Esencias",fecha="0-0-2009",escultor="Adriana Oplanich",pais="Argentina",material="Cemento",imagen="EsculturasFotos\\336.JPG",direccion="Echeverria 765",lat="-27.452351",lng="-58.998481",premio="-")\n\tdb.escultura.insert(nombre="Victoria",fecha="16-7-2000",escultor="Sandonato, Aurelio",pais="Canad\xc3\xa1",material="Madera de urunday",imagen="EsculturasFotos\\337.JPG",direccion="Santa Mar\xc3\xada de Oro 143",lat="-27.451545",lng="-58.988686",premio="Premio C\xc3\xa1mara de Diputados - Primer Concurso Trienal Internacional de Escultura en Madera")\n\tdb.escultura.insert(nombre="No dispares tu misil",fecha="-",escultor="Johnson, H\xc3\xa9ctor",pais="Argentina",material="Madera",imagen="EsculturasFotos\\338.JPG",direccion="Lop\xc3\xa9z y Planes 165 - Jard\xc3\xadn de Arte",lat="-27.452223",lng="-58.982595",premio="Primer Premio y menci\xc3\xb3n de los Escultores - Cuarto Concurso Nacional de Escultura en Madera")\n\tdb.escultura.insert(nombre="Testimonio",fecha="7-12-2001",escultor="Fabriciano",pais="Argentina",material="Chapa",imagen="EsculturasFotos\\339.JPG",direccion="La Cangay\xc3\xa9 227",lat="-27.43971",lng="-58.995437",premio="-")\n\tdb.escultura.insert(nombre="Caminos de la nieve",fecha="21-12-2001",escultor="Lestander, Dan",pais="Suecia",material="M\xc3\xa1rmol",imagen="EsculturasFotos\\340.JPG",direccion="Av. Laprida y G\xc3\xbcemes",lat="-27.445505",lng="-58.978683",premio="Primer Premio - Bienal de Escultura 2000")\n\tdb.escultura.insert(nombre="Xanna",fecha="-",escultor="Bustos Navarro, Carlos",pais="Argentina",material="Cemento",imagen="EsculturasFotos\\342.JPG",direccion="G\xc3\xbcemes 530",lat="-27.447788",lng="-58.98093",premio="-")\n\tdb.escultura.insert(nombre="Construcci\xc3\xb3n progresiva",fecha="28-7-2002",escultor="Romano, Enrique",pais="Argentina",material="Metal",imagen="EsculturasFotos\\343.JPG",direccion="Av. De los Inmigrantes 1001 - Museum",lat="-27.436822",lng="-58.982201",premio="-")\n\tdb.escultura.insert(nombre="Pareja en primavera",fecha="-",escultor="Fabriciano",pais="Argentina",material="M\xc3\xa1rmol",imagen="EsculturasFotos\\345.JPG",direccion="Saavedra 235 - Residencia del Gobernador",lat="-27.448238",lng="-58.979124",premio="-")\n\tdb.escultura.insert(nombre="Inter Temporis",fecha="13-7-2005",escultor="Francini, Bettino",pais="Italia",material="Metal",imagen="EsculturasFotos\\346.JPG",direccion="Av. De los Inmigrantes 1001 - Museum",lat="-27.436744",lng="-58.981318",premio="-")\n\tdb.escultura.insert(nombre="Familia",fecha="-",escultor="Fabriciano",pais="Argentina",material="M\xc3\xa1rmol travertino",imagen="EsculturasFotos\\347.JPG",direccion="Col\xc3\xb3n 735",lat="-27.460106",lng="-58.989506",premio="-")\n\tdb.escultura.insert(nombre="Brayle",fecha="-",escultor="-",pais="-",material="Cemento",imagen="EsculturasFotos\\348.JPG",direccion="Av. Belgrano 1099",lat="-27.455829",lng="-59.000289",premio="-")\n\tdb.escultura.insert(nombre="Equus - Cabeza de caballo",fecha="00-09-2000",escultor="Bertedor, Ernesto",pais="Argentina",material="Madera",imagen="EsculturasFotos\\349.JPG",direccion="Plazoleta Ren\xc3\xa9 Favaloro",lat="-27.433746",lng="-58.979965",premio="-")\n\tdb.escultura.insert(nombre="El pensador",fecha="-",escultor="D\xc3\xadaz, Susana",pais="Argentina",material="Cemento",imagen="EsculturasFotos\\350.JPG",direccion="Av. Lavalle 595",lat="-27.440409",lng="-58.984724",premio="-")\n\tdb.escultura.insert(nombre="Ondulaci\xc3\xb3n",fecha="-",escultor="Verhaghe, Bernard",pais="-",material="M\xc3\xa1rmol travertino",imagen="EsculturasFotos\\351.JPG",direccion="C\xc3\xb3rdoba 198",lat="-27.447167",lng="-58.978826",premio="Premio del p\xc3\xbablico - Bienal de Escultura")\n\tdb.escultura.insert(nombre="Bosque",fecha="31-12-2000",escultor="Inoue, Baku",pais="Jap\xc3\xb3n",material="M\xc3\xa1rmol travertino",imagen="EsculturasFotos\\352.JPG",direccion="Av. De los Inmigrantes 1001 - Museum",lat="-27.437693",lng="-58.981122",premio="Segundo Premio - Bienal de Escultura")\n\tdb.escultura.insert(nombre="Meditaci\xc3\xb3n",fecha="00-09-2000",escultor="Cabrera Castillo, Dolores",pais="Argentina",material="Piedra",imagen="EsculturasFotos\\354.JPG",direccion="Plazoleta Rene Favaloro",lat="-27.433853",lng="-58.979668",premio="-")\n\tdb.escultura.insert(nombre="Arbol y tormenta",fecha="-",escultor="Villalobos Sandoval, Enrique",pais="Chile",material="Madera",imagen="EsculturasFotos\\356.JPG",direccion="Av. De los Inmigrantes - Rambla de las esculturas",lat="-27.43996",lng="-58.98304",premio="-")\n\tdb.escultura.insert(nombre="En Busca de Nuevos Horizontes",fecha="-",escultor="Farias Nicchi, Gabriela",pais="Argentina",material="Cemento",imagen="EsculturasFotos\\357.JPG",direccion="Peatonal Juan D. Per\xc3\xb3n 199",lat="-27.451223",lng="-58.989938",premio="-")\n\tdb.escultura.insert(nombre="Madre/esposa 4519",fecha="-",escultor="Diaz Navarro, Carlos",pais="Argentina",material="Madera",imagen="EsculturasFotos\\358.JPG",direccion="Juan D. Per\xc3\xb3n 352, Hotel Marconi",lat="-27.449966",lng="-58.991282",premio="Segundo Premio - Segundo Concurso Nacional de Escultura en Madera")\n\tdb.escultura.insert(nombre="Semilla del desierto",fecha="-",escultor="Tulian, Chalo",pais="Argentina",material="Madera",imagen="EsculturasFotos\\359.JPG",direccion="Av. De los Inmigrantes - Rambla de las esculturas",lat="-27.43999",lng="-58.983075",premio="Tercer Premio - Cuarto Concurso Nacional de Escultura en Madera")\n\tdb.escultura.insert(nombre="Hombre",fecha="-",escultor="Alvarez Lomba, Arturo",pais="Argentina",material="Madera",imagen="EsculturasFotos\\360.JPG",direccion="Av. Sarmiento 200 al 300",lat="-27.449071",lng="-58.984228",premio="Segundo Premio - Tercer Concurso Nacional de Escultura en Madera")\n\tdb.escultura.insert(nombre="Gestaci\xc3\xb3n",fecha="-",escultor="Avalos Cussi, Aguedo",pais="Argentina",material="Madera",imagen="EsculturasFotos\\362.JPG",direccion="Roque Saenz Pe\xc3\xb1a 180",lat="-27.454677",lng="-58.985336",premio="Tercer Premio")\n\tdb.escultura.insert(nombre="Principio",fecha="20-12-2011",escultor="Galicer, Jorgelina",pais="Argentina",material="Madera",imagen="EsculturasFotos\\365.JPG",direccion="Barrio Espa\xc3\xb1a - EEP N\xc2\xb0 383 "Mtra.Enriqueta Mohando de Solimano"",lat="-27.442711",lng="-59.016814",premio="-")\n\tdb.escultura.insert(nombre="URSS",fecha="28-7-2002",escultor="Valdez, Francisco",pais="Argentina",material="Madera",imagen="EsculturasFotos\\366.JPG",direccion="French 555 - AMUDOCH",lat="-27.449833",lng="-58.97826",premio="Premio C\xc3\xa1mara de Diputados y Premio de Escultores - Quinto Concurso Nacional de Escultura en Madera")\n\tdb.escultura.insert(nombre="Idolo femenino",fecha="28-7-2002",escultor="De la Fuente, Ana Mar\xc3\xada",pais="Per\xc3\xba",material="Madera",imagen="EsculturasFotos\\367.JPG",direccion="Av. De los Inmigrantes - Rambla de las esculturas",lat="-27.439112",lng="-58.982015",premio="-")\n\tdb.escultura.insert(nombre="Activador",fecha="28-7-2002",escultor="G\xc3\xb3mez, Ra\xc3\xbal "P\xc3\xa1jaro"",pais="Argentina",material="Metal",imagen="EsculturasFotos\\372.JPG",direccion="Av. De los Inmigrantes 1001 - Museum",lat="-27.436113",lng="-58.981991",premio="-")\n\tdb.escultura.insert(nombre="Resurrecci\xc3\xb3n",fecha="20-8-2002",escultor="Gonzalez de Nava, Enrique",pais="Argentina",material="Madera y chapa",imagen="EsculturasFotos\\375.JPG",direccion="Av. Laprida y L\xc3\xb3pez y Planes",lat="-27.447286",lng="-58.976787",premio="-")\n\tdb.escultura.insert(nombre="Sol de solidaridad",fecha="20-8-2002",escultor="Rocha, Marco Antonio",pais="Brasil",material="Madera y chapa",imagen="EsculturasFotos\\376.JPG",direccion="Av. De los Inmigrantes - Rambla de las esculturas",lat="-27.438243",lng="-58.981246",premio="Premio Osde - Bienal del Chaco 2002")\n\tdb.escultura.insert(nombre="Redes 21",fecha="23-8-2002",escultor="Fischer, Daniel",pais="Argentina",material="Acero inoxidable",imagen="EsculturasFotos\\377.JPG",direccion="Av. Sarmiento 2800",lat="-27.425766",lng="-58.959868",premio="-")\n\tdb.escultura.insert(nombre="Urunday 1994",fecha="19-5-2003",escultor="Medina, Carlos",pais="Venezuela",material="Madera",imagen="EsculturasFotos\\378.JPG",direccion="Obligado 211 - Hotel Royal",lat="-27.45511",lng="-58.987095",premio="-")\n\tdb.escultura.insert(nombre="Sol",fecha="5-10-2002",escultor="Lievore, Vicent",pais="Francia",material="M\xc3\xa1rmol travertino",imagen="EsculturasFotos\\379.JPG",direccion="Roque Saenz Pe\xc3\xb1a 370",lat="-27.45632",lng="-58.987152",premio="Premio Fundaci\xc3\xb3n Andreani - Bienal del Chaco 2000")\n\tdb.escultura.insert(nombre="Hacia nuestro origen",fecha="29-10-2002",escultor="G\xc3\xb3mez Lollo, Humberto",pais="Argentina",material="Madera",imagen="EsculturasFotos\\380.JPG",direccion="Col\xc3\xb3n 234 - Polic\xc3\xada Federal Argentina",lat="-27.456014",lng="-58.985193",premio="Tercer Premio - Primer Concurso Nacional de Escultura en Madera")\n\tdb.escultura.insert(nombre="Urk (grito de un ave lejana)",fecha="11-3-2003",escultor="De La Cruz, Alejandro",pais="Argentina",material="Madera",imagen="EsculturasFotos\\381.JPG",direccion="Av. San Martin 1040 - Direcci\xc3\xb3n de Tr\xc3\xa1nsito",lat="-27.46325",lng="-58.991462",premio="-")\n\tdb.escultura.insert(nombre="El reloj",fecha="14-12-2002",escultor="Kohnen, Hans",pais="Holanda",material="M\xc3\xa1rmol travertino",imagen="EsculturasFotos\\382.JPG",direccion="Ruta Nicolas Avellaneda y Av. Sarmiento",lat="-27.421526",lng="-58.954375",premio="-")\n\tdb.escultura.insert(nombre="Un sue\xc3\xb1o",fecha="17-12-2002",escultor="Clotet, Montse Gonzalo",pais="Espa\xc3\xb1a",material="Madera",imagen="EsculturasFotos\\383.JPG",direccion="Av. Avalos 1085 - Club de Regatas Resistencia",lat="-27.436103",lng="-58.984512",premio="-")\n\tdb.escultura.insert(nombre="Composici\xc3\xb3n",fecha="17-12-2002",escultor="Lopez Meliton, Carlos",pais="Per\xc3\xba",material="Madera",imagen="EsculturasFotos\\384.JPG",direccion="Av. Avalos 1085 - Club de Regatas Resistencia",lat="-27.436172",lng="-58.984656",premio="-")\n\tdb.escultura.insert(nombre="Hojas de urunday",fecha="23-12-2002",escultor="Morales Rossi, Ram\xc3\xb3n",pais="Venezuela",material="Madera y Hierro",imagen="EsculturasFotos\\387.JPG",direccion="Av. Hernandarias 249 - Hotel Atrium",lat="-27.447048",lng="-58.995391",premio="-")\n\tdb.escultura.insert(nombre="Esfuerzos compartidos",fecha="19-12-2002",escultor="Fabriciano y Mimo Eidman",pais="Argentina",material="M\xc3\xa1rmol travertino y acero",imagen="EsculturasFotos\\389.JPG",direccion="Lop\xc3\xa9z y Planes 555",lat="-27.449124",lng="-58.97918",premio="-")\n\tdb.escultura.insert(nombre="Cabeza",fecha="27-12-2002",escultor="Tidone, Sepuccio",pais="Argentina",material="Cemento",imagen="EsculturasFotos\\390.JPG",direccion="Av. Alberdi 475",lat="-27.454782",lng="-58.990515",premio="-")\n\tdb.escultura.insert(nombre="Totem",fecha="27-12-2002",escultor="Domp\xc3\xa9, Hern\xc3\xa1n",pais="Argentina",material="Madera",imagen="EsculturasFotos\\392.JPG",direccion="G\xc3\xbcemes 200 - Hotel Covadonga",lat="-27.450584",lng="-58.983902",premio="Primer Premio - Primer Concurso Nacional de Escultura en Madera")\n\tdb.escultura.insert(nombre="Destrucci\xc3\xb3n del Ed\xc3\xa9n II",fecha="-",escultor="Ferrer, Francisco",pais="Argentina",material="Madera",imagen="EsculturasFotos\\394.JPG",direccion="Av. Laprida y Av. Sarmiento - Colegio Lino Torres",lat="-27.444485",lng="-58.979467",premio="Segundo Premio - Quinto Concurso Nacional de Escultura en Madera")\n\tdb.escultura.insert(nombre="Estructura para una idea",fecha="-",escultor="Sastre, Melquiades",pais="Puerto Rico",material="Madera",imagen="EsculturasFotos\\396.JPG",direccion="Av. Laprida y Av. Sarmiento - Colegio Lino Torres",lat="-27.44443",lng="-58.979432",premio="-")\n\tdb.escultura.insert(nombre="Soldado de coraz\xc3\xb3n",fecha="00-12-2002",escultor="Higa, Haroldo",pais="Per\xc3\xba",material="Madera de cedro colorado misionero",imagen="EsculturasFotos\\397.JPG",direccion="Ruta Nicolas Avellaneda - Hotel Del Pomar",lat="-27.42974",lng="-58.939459",premio="-")\n\tdb.escultura.insert(nombre="Ola",fecha="00-09-2000",escultor="Vald\xc3\xa9z, Francisco",pais="Argentina",material="Piedra",imagen="EsculturasFotos\\398.JPG",direccion="Plazoleta Ren\xc3\xa9 Favaloro",lat="-27.433777",lng="-58.97974",premio="-")\n\tdb.escultura.insert(nombre="Sirena del amanecer",fecha="30-12-2002",escultor="Gerdes, Rosemary",pais="Argentina",material="Cemento",imagen="EsculturasFotos\\399.JPG",direccion="Pueyrred\xc3\xb3n 820",lat="-27.443022",lng="-58.9809",premio="-")\n\tdb.escultura.insert(nombre="Cara o cruz",fecha="31-12-2002",escultor="Warwick, Mark",pais="U.S.A.",material="M\xc3\xa1rmol travertino",imagen="EsculturasFotos\\400.JPG",direccion="Av. De los Inmigrantes 1001 - Museum",lat="-27.437339",lng="-58.980706",premio="-")\n\tdb.escultura.insert(nombre="Despu\xc3\xa9s de la masacre de\xe2\x80\xa6",fecha="-",escultor="Fabriciano",pais="Argentina",material="Madera y metal",imagen="EsculturasFotos\\401.JPG",direccion="Julio A. Roca 1741",lat="-27.438048",lng="-59.00328",premio="-")\n\tdb.escultura.insert(nombre="-",fecha="-",escultor="Bancalari, Andres",pais="Argentina",material="Cemento",imagen="EsculturasFotos\\402.JPG",direccion="Frondizi 1014",lat="-27.459972",lng="-58.994718",premio="-")\n\tdb.escultura.insert(nombre="Victoria",fecha="-",escultor="Cort\xc3\xa9z, Juan Carlos",pais="Argentina",material="Metal",imagen="EsculturasFotos\\403.JPG",direccion="Peatonal Arturo Ill\xc3\xada 97",lat="-27.453465",lng="-58.98742",premio="-")\n\tdb.escultura.insert(nombre="Puerta de los cielos",fecha="1-4-2003",escultor="De Bueno, Oscar",pais="Argentina",material="Hierro, acero, quebracho y piedra",imagen="EsculturasFotos\\404.JPG",direccion="Av. Sarmiento 700",lat="-27.445791",lng="-58.980591",premio="-")\n\tdb.escultura.insert(nombre="Mama quilla",fecha="19-5-2003",escultor="Cisterna, Jorge",pais="Argentina",material="Madera",imagen="EsculturasFotos\\405.JPG",direccion="G\xc3\xbcemes 200",lat="-27.450535",lng="-58.983837",premio="Premio de Escultores, Segundo Concurso Nacional de Escultura en Madera")\n\tdb.escultura.insert(nombre="Uni\xc3\xb3n",fecha="00-12-2000",escultor="Mariano Vilella",pais="Espa\xc3\xb1a",material="M\xc3\xa1rmol travertino",imagen="EsculturasFotos\\406.JPG",direccion="Pellegrini 499",lat="-27.44895",lng="-58.980435",premio="-")\n\tdb.escultura.insert(nombre="Los Due\xc3\xb1os de la Tierra",fecha="10-10-2003",escultor="Mimo Eidman",pais="Argentina",material="Madera y hierro",imagen="EsculturasFotos\\407.JPG",direccion="Monteagudo 695",lat="-27.450404",lng="-58.975288",premio="-")\n\tdb.escultura.insert(nombre="Opresi\xc3\xb3n",fecha="00-08-2000",escultor="Acosta, Miguel Angel",pais="Argentina",material="M\xc3\xa1rmol travertino -  Hierro",imagen="EsculturasFotos\\408.JPG",direccion="Franklin 2100, EGB N\xc2\xba 706",lat="-27.472929",lng="-58.972549",premio="Tercer Premio, Bienal de Escultura.")\n\tdb.escultura.insert(nombre="Almafuerte",fecha="-",escultor="Blotta, Erminio",pais="Argentina",material="Bronce",imagen="EsculturasFotos\\409.JPG",direccion="Brown 350 - El Fog\xc3\xb3n de los Arrieros",lat="-27.452397",lng="-58.981728",premio="-")\n\tdb.escultura.insert(nombre="Sin Titulo",fecha="17-12-2012",escultor="Zulema Adaime",pais="Argentina",material="Hierro",imagen="EsculturasFotos\\410.JPG",direccion="D\xc3\xb3novan 368",lat="-27.450866",lng="-58.993122",premio="-")\n\tdb.escultura.insert(nombre="El Guardi\xc3\xa1n",fecha="14-1-2004",escultor="Abt, David",pais="Argentina",material="Chapa",imagen="EsculturasFotos\\411.JPG",direccion="Padre Cerqueira 115",lat="-27.44338",lng="-58.997443",premio="-")\n\tdb.escultura.insert(nombre="San Alfonso",fecha="-",escultor="-",pais="-",material="Cemento",imagen="EsculturasFotos\\412.JPG",direccion="Av. Italia 1401",lat="-27.44409",lng="-58.969975",premio="-")\n\tdb.escultura.insert(nombre="Equilibrio Diagonal I",fecha="-",escultor="Fabriciano",pais="Argentina",material="",imagen="EsculturasFotos\\414.JPG",direccion="Julio A. Roca 1741",lat="-27.438091",lng="-59.00333",premio="-")\n\tdb.escultura.insert(nombre="Amanecer en el r\xc3\xado",fecha="00-00-1999",escultor="Fabriciano",pais="Argentina",material="Metal",imagen="EsculturasFotos\\415.JPG",direccion="Concepci\xc3\xb3n del Bermejo 1353",lat="-27.432716",lng="-58.984585",premio="-")\n\tdb.escultura.insert(nombre="City",fecha="24-4-2008",escultor="Russu, Liviu",pais="Rumania",material="M\xc3\xa1rmol travertino",imagen="EsculturasFotos\\416.JPG",direccion="Av. de los inmigrantes  200 al 300",lat="-27.438915",lng="-58.981771",premio="-")\n\tdb.escultura.insert(nombre="Detalle",fecha="20-1-2004",escultor="L\xc3\xb3pez, Carlos",pais="-",material="Madera",imagen="EsculturasFotos\\417.JPG",direccion="Marcelo T. de Alvear 145, Casa de Gobierno. ",lat="-27.449688",lng="-58.987026",premio="-")\n\tdb.escultura.insert(nombre="Crucificci\xc3\xb3n",fecha="-",escultor="Fabriciano",pais="Argentina",material="M\xc3\xa1rmol",imagen="EsculturasFotos\\418.JPG",direccion="Av. 25 de Mayo  1575 - Capilla Sagrado Coraz\xc3\xb3n",lat="-27.438788",lng="-59.000676",premio="-")\n\tdb.escultura.insert(nombre="La paz de nuestros dias",fecha="-",escultor="Monge, Carlos",pais="M\xc3\xa9xico",material="Madera",imagen="EsculturasFotos\\419.JPG",direccion="Av. Italia 150 - Municipalidad de Resistencia.",lat="-27.454056",lng="-58.980497",premio="Premio Joyer\xc3\xada Razetto, Primer Concurso Trienal Internacional de Escultura en Madera")\n\tdb.escultura.insert(nombre="Fusi\xc3\xb3n",fecha="13-7-2005",escultor="Saavedra Geuer, Le\xc3\xb3n",pais="Bolivia",material="Madera y chapa",imagen="EsculturasFotos\\420.JPG",direccion="Av. De los Inmigrantes 1001 - Museum",lat="-27.437641",lng="-58.981315",premio="Primer Premio, Bienal del Chaco 2002")\n\tdb.escultura.insert(nombre="Homenaje a los caidos en Malvinas",fecha="10-6-2004",escultor="Fabriciano",pais="Argentina",material="Hormig\xc3\xb3n armando y metal",imagen="EsculturasFotos\\421.jpg",direccion="Av. Sarmiento 3000",lat="-27.423776",lng="-58.9588",premio="-")\n\tdb.escultura.insert(nombre="Microcosmos",fecha="21-10-2004",escultor="Saavedra Geuer, Le\xc3\xb3n",pais="Bolivia",material="Acero y m\xc3\xa1rmol",imagen="EsculturasFotos\\422.JPG",direccion="Av. Alberdi 200",lat="-27.452694",lng="-58.988286",premio="-")\n\tdb.escultura.insert(nombre="Mujer-Paz",fecha="29-11-2004",escultor="Mimo Eidman",pais="Argentina",material="Resina",imagen="EsculturasFotos\\423.JPG",direccion="Av. Rivadavia 430",lat="-27.443928",lng="-58.985928",premio="-")\n\tdb.escultura.insert(nombre="Madre de la tierra",fecha="5-1-2005",escultor="Juan, Elizabeth",pais="Austria",material="M\xc3\xa1rmol travertino",imagen="EsculturasFotos\\424.JPG",direccion="Av. Sarmiento 355",lat="-27.448329",lng="-58.983573",premio="-")\n\tdb.escultura.insert(nombre="Plenitud",fecha="-",escultor="Simoni, Mariana",pais="Argentina",material="Hierro",imagen="EsculturasFotos\\425.JPG",direccion="Av. Nicol\xc3\xa1s Rojas Acosta 99",lat="-27.459692",lng="-58.974953",premio="-")\n\tdb.escultura.insert(nombre="Danae",fecha="11-3-2005",escultor="Encina, Mirian",pais="Argentina",material="Cemento",imagen="EsculturasFotos\\426.JPG",direccion="Av. Nicol\xc3\xa1s Rojas Acosta 100 al 200",lat="-27.459147",lng="-58.974242",premio="-")\n\tdb.escultura.insert(nombre="Futuro",fecha="`03-2005",escultor="Fabriciano",pais="Argentina",material="Granito y metal",imagen="EsculturasFotos\\427.JPG",direccion="Brasilia e Issaias - EEGB 1030",lat="-27.454755",lng="-59.029008",premio="-")\n\tdb.escultura.insert(nombre="Esfuerzos compartidos",fecha="15-3-2005",escultor="Beckelmann, Gustavo",pais="Paraguay",material="Madera y metal",imagen="EsculturasFotos\\428.JPG",direccion="Mitre 802",lat="-27.443735",lng="-58.980309",premio="Tercer Premio, Bienal del Chaco")\n\tdb.escultura.insert(nombre="La asunci\xc3\xb3n de la virgen",fecha="`1971",escultor="Torre, Eddie",pais="Argentina",material="Chapa batida",imagen="EsculturasFotos\\429.JPG",direccion="Asunci\xc3\xb3n 685 - Parroquia Nuestra Se\xc3\xb1ora de la Asunci\xc3\xb3n.",lat="-27.44477",lng="-58.968239",premio="-")\n\tdb.escultura.insert(nombre="San Lucas",fecha="`1971",escultor="Torre, Eddie",pais="Argentina",material="Chapa batida",imagen="EsculturasFotos\\430.JPG",direccion="Asunci\xc3\xb3n 685 - Parroquia Nuestra Se\xc3\xb1ora de la Asunci\xc3\xb3n.",lat="-27.444923",lng="-58.9684",premio="-")\n\tdb.escultura.insert(nombre="El drag\xc3\xb3n a los pies de San Juan",fecha="`1971",escultor="Torre, Eddie",pais="Argentina",material="Chapa batida",imagen="EsculturasFotos\\431.JPG",direccion="Asunci\xc3\xb3n 685 - Parroquia Nuestra Se\xc3\xb1ora de la Asunci\xc3\xb3n.",lat="-27.444887",lng="-58.968102",premio="-")\n\tdb.escultura.insert(nombre="Hacia ellos",fecha="1-6-2005",escultor="Fabriciano",pais="Argentina",material="M\xc3\xa1rmol, bronce y granito",imagen="EsculturasFotos\\432.JPG",direccion="Mitre y Santa Fe",lat="-27.448912",lng="-58.985679",premio="-")\n\tdb.escultura.insert(nombre="Semilla",fecha="1-8-2005",escultor="Beckelmann, Gustavo",pais="Paraguay",material="M\xc3\xa1rmol travertino",imagen="EsculturasFotos\\433.JPG",direccion="Don Bosco 637",lat="-27.453718",lng="-58.978279",premio="-")\n\tdb.escultura.insert(nombre="Juana sin techo",fecha="16-11-2005",escultor="Gaggini, Guillermo",pais="Argentina",material="Madera y metal",imagen="EsculturasFotos\\434.JPG",direccion="Av. Avalos y Av. Rivadavia",lat="-27.440931",lng="-58.989265",premio="Premio del P\xc3\xbablico y de los Ni\xc3\xb1os, Bienal del Chaco")\n\tdb.escultura.insert(nombre="Ana Mar\xc3\xada",fecha="30-12-2005",escultor="Wilde, Jos\xc3\xa9 Antonio",pais="Argentina",material="Cemento",imagen="EsculturasFotos\\435.JPG",direccion="Ameghino 646",lat="-27.459316",lng="-58.98436",premio="-")\n\tdb.escultura.insert(nombre="Cuna",fecha="8-3-2006",escultor="Cabral, Taty",pais="Argentina",material="Cemento",imagen="EsculturasFotos\\436.JPG",direccion="Av. Nicol\xc3\xa1s Rojas Acosta 300",lat="-27.457911",lng="-58.97285",premio="-")\n\tdb.escultura.insert(nombre="El Migrante",fecha="17-7-2006",escultor="Shiroma, Aldo",pais="Per\xc3\xba",material="M\xc3\xa1rmol travertino",imagen="EsculturasFotos\\437.JPG",direccion="French 1",lat="-27.454146",lng="-58.982852",premio="Premio del P\xc3\xbablico y de los Ni\xc3\xb1os, Bienal Internacional de Escultura 2004")\n\tdb.escultura.insert(nombre="Germinaci\xc3\xb3n II",fecha="20-7-2006",escultor="Tulian, Chalo",pais="Argentina",material="Metal - Madera",imagen="EsculturasFotos\\438.JPG",direccion="Av. Sarmiento 400 ",lat="-27.447938",lng="-58.982964",premio="-")\n\tdb.escultura.insert(nombre="Moonrise",fecha="19-7-2006",escultor="Jubran, Hanna",pais="U.S.A.",material="M\xc3\xa1rmol travertino",imagen="EsculturasFotos\\439.JPG",direccion="Santa Fe 88",lat="-27.448893",lng="-58.985427",premio="Tercer Premio, Bienal Internacional de Escultura 2004")\n\tdb.escultura.insert(nombre="Development",fecha="19-7-2006",escultor="Vassilev, Milen",pais="Bulgaria",material="M\xc3\xa1rmol travertino",imagen="EsculturasFotos\\440.JPG",direccion="Santa Fe 88",lat="-27.448833",lng="-58.985515",premio="Premio Fondo Nacional de las Artes, Bienal Internacional de Escultura 2004")\n\tdb.escultura.insert(nombre="Lotus plan",fecha="24-7-2006",escultor="Hasegawa, Masahiro",pais="Jap\xc3\xb3n",material="Metal",imagen="EsculturasFotos\\441.JPG",direccion="Av. De los Inmigrantes 1001 - Museum",lat="-27.43776",lng="-58.981431",premio="Tercer Puesto y Premio de Escultores, Bienal Internacional de Escultura 2006")\n\tdb.escultura.insert(nombre="Song of wind: Crescendo",fecha="24-7-2006",escultor="Lyons, Michael",pais="Inglaterra",material="Metal",imagen="EsculturasFotos\\442.JPG",direccion="Av. De los Inmigrantes 1001 - Museum",lat="-27.44062605257932",lng="-58.98381471633911",premio="Premio Fondo Nacional de las Artes, Bienal Internacional de Escultura 2006")\n\tdb.escultura.insert(nombre="The symphony of the sky and ground - Music of Spheres",fecha="24-7-2006",escultor="Golovkov, Vladimir",pais="Rusia",material="Metal",imagen="EsculturasFotos\\443.JPG",direccion="Av. Alvear 2000",lat="-27.442478",lng="-59.010798",premio="Premio Repsol Y.P.F., Bienal Internacional de Escultura 2006")\n\tdb.escultura.insert(nombre="Melod\xc3\xada en fuga",fecha="24-7-2006",escultor="Ceolin, Leonardo",pais="Brasil",material="Metal",imagen="EsculturasFotos\\444.JPG",direccion="Av. De los Inmigrantes 1001 - Museum",lat="-27.437381",lng="-58.981524",premio="Premio Telecom Argentina S.A., Bienal Internacional de Escultura 2006")\n\tdb.escultura.insert(nombre="M\xc3\xbasica",fecha="24-7-2006",escultor="Spanhiel, Jan Eduard",pais="Rep\xc3\xbablica Checa",material="Metal",imagen="EsculturasFotos\\445.JPG",direccion="Av. De los Inmigrantes 1001 - Museum",lat="-27.437184",lng="-58.980875",premio="Premio Libertad S.A., Bienal Internacional de Escultura 2006")\n\tdb.escultura.insert(nombre="Homenaje a Federico Moura",fecha="24-7-2006",escultor="Pezzani, Juan",pais="Argentina",material="Metal",imagen="EsculturasFotos\\446.JPG",direccion="Av. La valle 489",lat="-27.441112",lng="-58.983694",premio="Segundo Puesto, Premio de los Ni\xc3\xb1os y del P\xc3\xbablico, Bienal Internacional de Escultura 2006")\n\tdb.escultura.insert(nombre="One Chord",fecha="24-7-2006",escultor="Twardowski, Piotr",pais="Polonia",material="Metal",imagen="EsculturasFotos\\447.JPG",direccion="Av. De los Inmigrantes 1001 - Museum",lat="-27.437462",lng="-58.98101",premio="Primer Premio, Bienal Internacional de Escultura 2006")\n\tdb.escultura.insert(nombre="Rhythm of nature",fecha="24-7-2006",escultor="Jubran, Hanna",pais="U.S.A.",material="Metal",imagen="EsculturasFotos\\448.JPG",direccion="Av. De los Inmigrantes 1001 - Museum",lat="-27.437086",lng="-58.981216",premio="Menci\xc3\xb3n del Jurado, Bienal Internacional de Escultura 2006")\n\tdb.escultura.insert(nombre="Sunrise",fecha="24-7-2006",escultor="Dongliang, Li",pais="China",material="Metal",imagen="EsculturasFotos\\449.jpg",direccion="UOCRA (Barrio UOM)",lat="-27.495631",lng="-58.976275",premio="Premio Honda Motor Argentina, Bienal Internacional de Escultura 2006")\n\tdb.escultura.insert(nombre="M\xc3\xbasica",fecha="27-8-2006",escultor="Dickson, Don",pais="Canad\xc3\xa1",material="Metal",imagen="EsculturasFotos\\450.JPG",direccion="Av. De los Inmigrantes 1001 - Museum",lat="-27.43776",lng="-58.980647",premio="Premio Multicanal, Bienal Internacional de Escultura 2006")\n\tdb.escultura.insert(nombre="Trompetas de la Fama",fecha="27-8-2006",escultor="Lievore, Vicent",pais="Francia",material="Metal",imagen="EsculturasFotos\\451.JPG",direccion="Parque Laguna Arg\xc3\xbcello",lat="-27.454237",lng="-58.973568",premio="Premio Femechaco, Bienal Internacional de Escultura 2006")\n\tdb.escultura.insert(nombre="Renacer",fecha="7-9-2006",escultor="Fabriciano",pais="Argentina",material="Metal",imagen="EsculturasFotos\\452.JPG",direccion="Av. Avalos 175",lat="-27.44334",lng="-58.992221",premio="-")\n\tdb.escultura.insert(nombre="El sur tambien existe",fecha="30-11-2006",escultor="Bustillos, Juan",pais="Bolivia",material="M\xc3\xa1rmol travetino",imagen="EsculturasFotos\\453.JPG",direccion="Av. Alberdi 283",lat="-27.453446",lng="-58.988879",premio="-")\n\tdb.escultura.insert(nombre="Equilibrio Diagonal II",fecha="15-1-2007",escultor="Fabriciano",pais="Argentina",material="M\xc3\xa1rmol travertino y granito",imagen="EsculturasFotos\\454.JPG",direccion="Santiago del Estero 246",lat="-27.452332",lng="-58.99206",premio="-")\n\tdb.escultura.insert(nombre="De la Serie de las Ventanas III",fecha="29-1-2007",escultor="Fabriciano",pais="Argentina",material="M\xc3\xa1rmol travertino y granito",imagen="EsculturasFotos\\455.JPG",direccion="Juan D. Per\xc3\xb3n 771",lat="-27.446758",lng="-58.99504",premio="-")\n\tdb.escultura.insert(nombre="Par\xc3\xa1sito",fecha="2-5-2007",escultor="Francini, Bettino",pais="Italia",material="M\xc3\xa1rmol travertino",imagen="EsculturasFotos\\456.JPG",direccion="Juan D. Per\xc3\xb3n 445",lat="-27.449317",lng="-58.99217",premio="-")\n\tdb.escultura.insert(nombre="Anuestro Perro",fecha="-",escultor="Victoria",pais="-",material="Cemento",imagen="EsculturasFotos\\457.JPG",direccion="Posadas 358",lat="-27.443716",lng="-58.988667",premio="-")\n\tdb.escultura.insert(nombre="T\xc3\xadtulo desconocido",fecha="7-9-2007",escultor="Abt, David",pais="Argentina",material="Metal",imagen="EsculturasFotos\\458.JPG",direccion="Don Bosco 42",lat="-27.449191",lng="-58.983568",premio="-")\n\tdb.escultura.insert(nombre="Introspecci\xc3\xb3n",fecha="00-02-2006",escultor="Fabriciano",pais="Argentina",material="Marm\xc3\xb3l travertino",imagen="EsculturasFotos\\459.JPG",direccion="Jos\xc3\xa9 Maria Paz 499",lat="-27.456497",lng="-58.988937",premio="-")\n\tdb.escultura.insert(nombre="Suelta de p\xc3\xa1jaros",fecha="7-9-2007",escultor="Daniel Ciancio",pais="Argentina",material="Madera",imagen="EsculturasFotos\\461.JPG",direccion="Ruta Nacional 11, Km 1003,5 - Aeropuerto Internacional Resistencia",lat="-27.444792",lng="-59.049033",premio="-")\n\tdb.escultura.insert(nombre="El Supremo",fecha="22-9-2007",escultor="Ben\xc3\xadtez, Nelson",pais="Paraguay",material="Madera",imagen="EsculturasFotos\\463.JPG",direccion="Gral. Fotheringham y Carlos Gardel - E.G.B.3 N\xc2\xba 518 Comandante Andresito",lat="-",lng="-",premio="-")\n\tdb.escultura.insert(nombre="Explosi\xc3\xb3n",fecha="20-11-2007",escultor="Fabriciano",pais="Argentina",material="Granito rojo",imagen="EsculturasFotos\\464.JPG",direccion="Av. Castelli 236",lat="-27.459182",lng="-58.991352",premio="-")\n\tdb.escultura.insert(nombre="Q.E.P.D. Am\xc3\xa9rica",fecha="27-12-2007",escultor="Tulian, Chalo",pais="Argentina",material="M\xc3\xa1rmol Travertino",imagen="EsculturasFotos\\465.JPG",direccion="Av. Alvear 45",lat="-27.457235",lng="-58.994047",premio="-")\n\tdb.escultura.insert(nombre="Tensi\xc3\xb3n",fecha="31-12-2007",escultor="Fabriciano",pais="Argentina",material="M\xc3\xa1rmol y metal",imagen="EsculturasFotos\\466.JPG",direccion="Arbo y Blanco 247",lat="-27.457747",lng="-58.983343",premio="Medalla de Oro, Bienal Internacional de Escultura 2004")\n\tdb.escultura.insert(nombre="Se\xc3\xb1ales",fecha="7-1-2008",escultor="Ferrer, Francisco",pais="Argentina",material="Madera",imagen="EsculturasFotos\\467.JPG",direccion="Remedios de Escalada 555, C\xc3\xadrculo de Suboficiales del Ej\xc3\xa9rcito.",lat="-27.444428",lng="-58.984338",premio="-")\n\tdb.escultura.insert(nombre="Malvinas",fecha="8-2-2008",escultor="Fabriciano",pais="Argentina",material="Hormigon",imagen="EsculturasFotos\\468.JPG",direccion="Av. Sarmiento y ruta Nicolas Avellaneda",lat="-27.422664",lng="-58.957586",premio="-")\n\tdb.escultura.insert(nombre="San Fernando",fecha="-",escultor="Fabriciano",pais="Argentina",material="M\xc3\xa1rmol travertino",imagen="EsculturasFotos\\469.JPG",direccion="Parque Norte "Caraguat\xc3\xa1"",lat="-27.389618",lng="-58.983359",premio="-")\n\tdb.escultura.insert(nombre="Sol",fecha="28-7-2002",escultor="Fabriciano",pais="Argentina",material="M\xc3\xa1rmol travertino",imagen="EsculturasFotos\\470.JPG",direccion="Av. Lavalle 700 al 800",lat="-27.439212",lng="-58.985832",premio="-")\n\tdb.escultura.insert(nombre="Esper\xc3\xa1ndote",fecha="15-6-2003",escultor="Fabriciano",pais="Argentina",material="M\xc3\xa1mol travertino y metal",imagen="EsculturasFotos\\471.JPG",direccion="Av. De los Inmigrantes 1001 - Museum",lat="-27.437253",lng="-58.980347",premio="-")\n\tdb.escultura.insert(nombre="Pareja II",fecha="-",escultor="Fabriciano",pais="Argentina",material="Granito negro",imagen="EsculturasFotos\\472.JPG",direccion="Av. Lavalle 450",lat="-27.441802",lng="-58.982581",premio="-")\n\tdb.escultura.insert(nombre="Fraternidad",fecha="6-6-2008",escultor="Fabriciano",pais="Argentina",material="Metal",imagen="EsculturasFotos\\473.JPG",direccion="Julio A. Roca 1799",lat="-27.437677",lng="-59.003544",premio="-")\n\tdb.escultura.insert(nombre="Familia",fecha="9-6-2008",escultor="Fabriciano",pais="Argentina",material="Madera",imagen="EsculturasFotos\\474.JPG",direccion="Julio A. Roca 1754",lat="-27.437901",lng="-59.003124",premio="-")\n\tdb.escultura.insert(nombre="Descarga",fecha="9-6-2008",escultor="Fabriciano",pais="Argentina",material="Granito negro",imagen="EsculturasFotos\\475.JPG",direccion="Julio A. Roca 1754",lat="-27.43811",lng="-59.002884",premio="-")\n\tdb.escultura.insert(nombre="Punto de encuentro",fecha="9-6-2008",escultor="Fabriciano",pais="Argentina",material="Granito rojo y negro",imagen="EsculturasFotos\\476.JPG",direccion="Salta 286",lat="-27.451278",lng="-58.99151",premio="-")\n\tdb.escultura.insert(nombre="Victor Flam",fecha="23-6-2008",escultor="Mimo Eidman",pais="Argentina",material="Marmol",imagen="EsculturasFotos\\477.JPG",direccion="Av. Marconi y Av. Hernandarias - Cementerio Israelita",lat="-27.457443",lng="-59.008762",premio="-")\n\tdb.escultura.insert(nombre="Dina Flan de Eidman",fecha="2-7-2008",escultor="Fabriciano",pais="Argentina",material="Marmol - Bronce ",imagen="EsculturasFotos\\478.JPG",direccion="Av. Marconi y Av. Hernandarias - Cementerio Israelita",lat="-27.457714",lng="-59.008575",premio="-")\n\tdb.escultura.insert(nombre="Samuel Eidman",fecha="-",escultor="Fabriciano",pais="Argentina",material="Marmol - Bronce ",imagen="EsculturasFotos\\479.JPG",direccion="Av. Marconi y Av. Hernandarias - Cementerio Israelita",lat="-27.457708",lng="-59.008621",premio="-")\n\tdb.escultura.insert(nombre="Ida Resch de Judchak",fecha="-",escultor="Fabriciano",pais="Argentina",material="Marmol ",imagen="EsculturasFotos\\480.JPG",direccion="Av. Marconi y Av. Hernandarias - Cementerio Israelita",lat="-27.457493",lng="-59.008598",premio="-")\n\tdb.escultura.insert(nombre="David Judchack",fecha="-",escultor="Fabriciano",pais="Argentina",material="Marmol",imagen="EsculturasFotos\\481.JPG",direccion="Av. Marconi y Av. Hernandarias - Cementerio Israelita",lat="-27.457514",lng="-59.008553",premio="-")\n\tdb.escultura.insert(nombre="Abraham Katz",fecha="-",escultor="Fabriciano",pais="Argentina",material="Marmol",imagen="EsculturasFotos\\482.JPG",direccion="Av. Marconi y Av. Hernandarias - Cementerio Israelita",lat="-27.457443",lng="-59.008797",premio="-")\n\tdb.escultura.insert(nombre="Maria Berembaum",fecha="-",escultor="Fabriciano",pais="Argentina",material="Marmol",imagen="EsculturasFotos\\483.JPG",direccion="Av. Marconi y Av. Hernandarias - Cementerio Israelita",lat="-27.457466",lng="-59.00856",premio="-")\n\tdb.escultura.insert(nombre="Juan Pablo II",fecha="-",escultor="Fabriciano",pais="Argentina",material="Cemento",imagen="EsculturasFotos\\484.JPG",direccion="Av. Sarmiento 1200",lat="-27.44154",lng="-58.975838",premio="-")\n\tdb.escultura.insert(nombre="Tiempo de encuentros",fecha="11-7-2008",escultor="Fabriciano",pais="Argentina",material="Madera y metal",imagen="EsculturasFotos\\485.JPG",direccion="Av. Avalos y Av. 25 de Mayo",lat="-27.444837",lng="-58.993621",premio="-")\n\tdb.escultura.insert(nombre="Energ\xc3\xada",fecha="15-7-2008",escultor="Fabriciano",pais="Argentina",material="Granito negro y cobre",imagen="EsculturasFotos\\486.JPG",direccion="Don Bosco 636",lat="-27.453787",lng="-58.9784",premio="-")\n\tdb.escultura.insert(nombre="El Vigia",fecha="15-7-2008",escultor="Fabriciano",pais="Argentina",material="Madera y metal",imagen="EsculturasFotos\\487.JPG",direccion="Av. Italia 758",lat="-27.449162",lng="-58.975529",premio="-")\n\tdb.escultura.insert(nombre="La Sph\xc3\xa8re Oppos\xc3\xa9e",fecha="20-7-2008",escultor="Lestander, Dan",pais="Suecia",material="Resina",imagen="EsculturasFotos\\488.JPG",direccion="Av. De los Inmigrantes 1001 - Museum",lat="-27.437841",lng="-58.981262",premio="-")\n\tdb.escultura.insert(nombre="Ave",fecha="20-7-2008",escultor="Musante, Mauro",pais="Argentina",material="Metal",imagen="EsculturasFotos\\489.JPG",direccion="Av. De los Inmigrantes 1001 - Museum",lat="-27.43766",lng="-58.981573",premio="-")\n\tdb.escultura.insert(nombre="La vida es una para toda la vida",fecha="23-7-2008",escultor="Tulian, Chalo",pais="Argentina",material="Madera",imagen="EsculturasFotos\\490.JPG",direccion="Cangallo 110",lat="-27.446606",lng="-58.993759",premio="-")\n\tdb.escultura.insert(nombre="Sentinela",fecha="-",escultor="Fabriciano",pais="Argentina",material="Granito",imagen="EsculturasFotos\\491.JPG",direccion="Col\xc3\xb3n 234 - Policia Federal Argentina.",lat="-27.45606",lng="-58.985188",premio="-")\n\tdb.escultura.insert(nombre="Del vuelo al arraigo",fecha="17-7-2008",escultor="Arias, Marcelo",pais="Argentina",material="Madera",imagen="EsculturasFotos\\492.JPG",direccion="Ruta Nacional 11, Km 1003,5 - Aeropuerto Internacional Resistencia",lat="-27.444661",lng="-59.049204",premio="-")\n\tdb.escultura.insert(nombre="Viaje al interior",fecha="-",escultor="Wicnudel, Lily",pais="Argentina",material="Acero inoxidable, vidrio, Cemento",imagen="EsculturasFotos\\493.JPG",direccion="Roque Saenz Pe\xc3\xb1a 180",lat="-27.454641",lng="-58.985282",premio="-")\n\tdb.escultura.insert(nombre="Mujer",fecha="8-3-2008",escultor="Adriana Oplanich",pais="Argentina",material="Cemento",imagen="EsculturasFotos\\494.JPG",direccion="Sgto. Cabral y San Francisco Solano - Parque Ecol\xc3\xb3gico Villa Prosperidad",lat="-27.451361",lng="-58.970387",premio="-")\n\tdb.escultura.insert(nombre="Gigante herido",fecha="20-7-2008",escultor="Campin, Mariana",pais="-",material="Granito y madera",imagen="EsculturasFotos\\495.JPG",direccion="Peatonal Juan D. Per\xc3\xb3n 0 al 100",lat="-27.45199",lng="-58.989061",premio="-")\n\tdb.escultura.insert(nombre="Mis tres amores",fecha="27-8-2009",escultor="Calandria, Eduardo",pais="Argentina",material="Metal",imagen="EsculturasFotos\\496.JPG",direccion="Jos\xc3\xa9 Maria Paz 170",lat="-27.45397",lng="-58.986275",premio="-")\n\tdb.escultura.insert(nombre="Fraternidad",fecha="20-7-2008",escultor="Vallone, Susana - Eidman, Mimo - Fabriciano",pais="Argentina",material="Bronce",imagen="EsculturasFotos\\497.JPG",direccion="Peatonal Juan D. Per\xc3\xb3n 151",lat="-27.451433",lng="-58.989708",premio="-")\n\tdb.escultura.insert(nombre="Plegaria",fecha="20-7-2008",escultor="Sotelo, Walter - G\xc3\xb3mez Lollo, Humberto - Fabriciano",pais="Argentina",material="Bronce",imagen="EsculturasFotos\\498.JPG",direccion="Peatonal Juan D. Per\xc3\xb3n 151",lat="-27.451466",lng="-58.989678",premio="-")\n\tdb.escultura.insert(nombre="El Manto",fecha="20-7-2008",escultor="Sotelo, Walter - G\xc3\xb3mez Lollo, Humberto - Fabriciano",pais="Argentina",material="Bronce",imagen="EsculturasFotos\\499.JPG",direccion="Peatonal Juan D. Per\xc3\xb3n 151",lat="-27.451418",lng="-58.989683",premio="-")\n\tdb.escultura.insert(nombre="Vuelo de paz",fecha="20-7-2008",escultor="Eidman, Mimo - Sotelo, Walter - G\xc3\xb3mez Lollo, Humberto - Fabriciano",pais="Argentina",material="Bronce",imagen="EsculturasFotos\\500.JPG",direccion="Peatonal Juan D. Per\xc3\xb3n 151",lat="-27.451449",lng="-58.989659",premio="-")\n\tdb.escultura.insert(nombre="Moises",fecha="-",escultor="Ester, Stefan",pais="Alemania",material="Madera de quebracho",imagen="EsculturasFotos\\501.JPG",direccion="Av. De los Inmigrantes 1001 - Museum",lat="-27.437324",lng="-58.980559",premio="-")\n\tdb.escultura.insert(nombre="Cielo a la tierra - lluvia",fecha="-",escultor="Saito, Toru",pais="Jap\xc3\xb3n",material="Madera de urunday",imagen="EsculturasFotos\\502.JPG",direccion="Av. De los Inmigrantes 1001 - Museum",lat="-27.436884",lng="-58.981492",premio="Gran Premio Chaco y de los Escultores, Bienal Internacional de Escultura 2008")\n\tdb.escultura.insert(nombre="Sin t\xc3\xadtulo",fecha="-",escultor="Pezzani, Juan",pais="Argentina",material="Madera de urunday",imagen="EsculturasFotos\\503.JPG",direccion="Av. Lavalle 63",lat="-27.44437",lng="-58.980044",premio="Premio Fondo Nacional de las Artes, Menci\xc3\xb3n del Jurado "Telecom Argentina S.A.", Bienal Internacional de Escultura 2008")\n\tdb.escultura.insert(nombre="Regeneraci\xc3\xb3n",fecha="-",escultor="Honarvar, Al\xc3\xad",pais="Ir\xc3\xa1n",material="Madera de quebracho",imagen="EsculturasFotos\\504.JPG",direccion="Av. Sarmiento 2100",lat="-27.434532",lng="-58.968323",premio="Premio S.E.Ch.E.E.P, Bienal Internacional de Escultura 2008")\n\tdb.escultura.insert(nombre="No matar\xc3\xa1s",fecha="-",escultor="D`Avila, C\xc3\xadcero",pais="Brasil",material="Madera de quebracho",imagen="EsculturasFotos\\505.JPG",direccion="Av. De los Inmigrantes - Rambla de las Esculturas",lat="-27.438788",lng="-58.981763",premio="Premio C\xc3\xa1mara de Diputados de la Provincia del Chaco, Bienal Internacional de Escultura 2008")\n\tdb.escultura.insert(nombre="El becerro de oro",fecha="-",escultor="Martinovic, Vladam",pais="Servia",material="Madera de quebracho",imagen="EsculturasFotos\\506.JPG",direccion="Av. Velez Sarfield - Av Paraguay",lat="-27.453511",lng="-58.975095",premio="Premio Standard Bank, Bienal Internacional de Escultura 2008")\n\tdb.escultura.insert(nombre="Qawak",fecha="-",escultor="Guill\xc3\xa9n Bezada, Pool",pais="Per\xc3\xba",material="Madera de quebracho",imagen="EsculturasFotos\\507.JPG",direccion="Av. Wilde - Av Rivadavia",lat="-27.443344",lng="-58.986564",premio="Premio Honda, Bienal Internacional de Escultura 2008")\n\tdb.escultura.insert(nombre="El pilar de los diez mandamientos",fecha="11-11-2009",escultor="Di Guglielmo, Dom\xc3\xa9nico Antonio",pais="Canad\xc3\xa1",material="Madera de quebracho",imagen="EsculturasFotos\\508.JPG",direccion="Mitre 166",lat="-27.449104",lng="-58.986",premio="Premio Ecom Chaco, Bienal Internacional de Escultura 2008")\n\tdb.escultura.insert(nombre="\xe2\x80\xa6aquel que me ama y respeta mis mandamientos\xe2\x80\xa6",fecha="-",escultor="Chlebek, Pawel",pais="Polonia",material="Madera de quebracho",imagen="EsculturasFotos\\510.JPG",direccion="Av. De los Inmigrantes - Rambla de las Esculturas",lat="-27.439455",lng="-58.982487",premio="Premio Fibertel, del P\xc3\xbablico y de los Ni\xc3\xb1os, Bienal Internacional de Escultura 2008")\n\tdb.escultura.insert(nombre="Apoyo sin condiciones",fecha="17-11-2008",escultor="Fabriciano",pais="Argentina",material="Granito rojo",imagen="EsculturasFotos\\511.JPG",direccion="Av. Castelli 1100, Instituto San Fernando Rey",lat="-27.466946",lng="-58.983729",premio="Premio Femechaco, Bienal Internacional de Escultura 2008")\n\tdb.escultura.insert(nombre="Angel mensajero",fecha="5-3-2009",escultor="Eremin, Alexander",pais="Rusia",material="Madera",imagen="EsculturasFotos\\512.JPG",direccion="B\xc2\xba Alberdi s/N\xc2\xba, Centro Comunitario de Ayuda al Ni\xc3\xb1o Desnutrido "Cruz Roja"",lat="-27.476017",lng="-59.014574",premio="-")\n\tdb.escultura.insert(nombre="Encuentro",fecha="8-3-2008",escultor="Molina, Molly",pais="Argentina",material="Metal",imagen="EsculturasFotos\\513.JPG",direccion="Sgto. Cabral y San Francisco Solano - Parque Ecol\xc3\xb3gico Villa Prosperidad",lat="-27.451357",lng="-58.970528",premio="-")\n\tdb.escultura.insert(nombre="Dogma II Nexo",fecha="4-8-2009",escultor="M\xc3\xa1rtire Dieguez, Omar",pais="Argentina",material="Metal",imagen="EsculturasFotos\\514.JPG",direccion="Av. 25 de Mayo 1135",lat="-27.442123",lng="-58.996824",premio="-")\n\tdb.escultura.insert(nombre="Familia",fecha="13-8-2009",escultor="Fabriciano",pais="Argentina",material="M\xc3\xa1rmol travertino",imagen="EsculturasFotos\\515.JPG",direccion="Pueyrred\xc3\xb3n 152",lat="-27.448404",lng="-58.986916",premio="-")\n\tdb.escultura.insert(nombre="Busto del Gral. Belgrano",fecha="12-11-2009",escultor="Marchese, V\xc3\xadctor",pais="Argentina",material="Cemento",imagen="EsculturasFotos\\516.JPG",direccion="Av. Paraguay 401",lat="-27.45039",lng="-58.978606",premio="-")\n\tdb.escultura.insert(nombre="Comuni\xc3\xb3n",fecha="26-11-2009",escultor="Fabriciano",pais="Argentina",material="Madera y m\xc3\xa1rmol",imagen="EsculturasFotos\\517.JPG",direccion="Gral. Mansilla 76",lat="-27.437289",lng="-59.003393",premio="-")\n\tdb.escultura.insert(nombre="Im\xc3\xa1genes de esperanza",fecha="3-12-2009",escultor="Fabriciano",pais="Argentina",material="Granito, bronce y cristal",imagen="EsculturasFotos\\518.JPG",direccion="Av. 9 de Julio 647",lat="-27.456103",lng="-58.980752",premio="-")\n\tdb.escultura.insert(nombre="Bagual Fuentes",fecha="-",escultor="Diaz Cordoba, Luis",pais="Argentina",material="Cemento",imagen="EsculturasFotos\\519.JPG",direccion="Plazoleta - Barrio Ricardo G\xc3\xbciraldes",lat="-27.485931",lng="-58.988901",premio="-")\n\tdb.escultura.insert(nombre="Homenaje a Ertivio Acosta",fecha="-",escultor="Monz\xc3\xb3n, Jorge",pais="Argentina",material="Cemento",imagen="EsculturasFotos\\520.JPG",direccion="Juan B. Justo 280 - Museo del Hombre Chaque\xc3\xb1o.",lat="-27.454107",lng="-58.985085",premio="-")\n\tdb.escultura.insert(nombre="Horizontes Tallados",fecha="-",escultor="Kordi, Jorge",pais="Argentina",material="Cemento",imagen="EsculturasFotos\\521.JPG",direccion="Av. 25 de Mayo 555",lat="-27.44692",lng="-58.991433",premio="-")\n\tdb.escultura.insert(nombre="Recordando",fecha="-",escultor="Korytnicki, Teresa",pais="Argentina",material="Chapa",imagen="EsculturasFotos\\522.JPG",direccion="Ameghino 355",lat="-27.456971",lng="-58.986838",premio="-")\n\tdb.escultura.insert(nombre="Sin Titulo",fecha="-",escultor="Benitez, Manuel",pais="Argentina",material="Madera",imagen="EsculturasFotos\\523.JPG",direccion="Necochea 964",lat="-27.456274",lng="-58.997581",premio="-")\n\tdb.escultura.insert(nombre="Totem Urbano",fecha="14-5-2010",escultor="Leonardo Gotleyb",pais="Argentina",material="Hormig\xc3\xb3n armado, mosaico veneciano y hierro",imagen="EsculturasFotos\\524.JPG",direccion="Av. Las Heras 750",lat="-27.463124",lng="-58.986062",premio="-")\n\tdb.escultura.insert(nombre="Cristo",fecha="13-8-2010",escultor="Torre, Eddie",pais="Argentina",material="Metal",imagen="EsculturasFotos\\525.JPG",direccion="Av. 9 de julio 1101 - Hospital Julio C. Perrando",lat="-27.459235",lng="-58.976846",premio="-")\n\tdb.escultura.insert(nombre="Idolo de la fertilidad",fecha="14-8-2010",escultor="Alvarez Lomba, Arturo",pais="Argentina",material="M\xc3\xa1rmol travertino",imagen="EsculturasFotos\\526.JPG",direccion="San Lorenzo 375",lat="-27.459525",lng="-58.983571",premio="-")\n\tdb.escultura.insert(nombre="Busto de F\xc3\xa9lix Codutti",fecha="8-10-2010",escultor="Ben\xc3\xadtez, Manuel",pais="Argentina",material="M\xc3\xa1rmol reconstitu\xc3\xaddo",imagen="EsculturasFotos\\527.JPG",direccion="Av. Hernandarias y Pje. Codutti",lat="-27.448372",lng="-58.997653",premio="-")\n\tdb.escultura.insert(nombre="Espacio protector de la memoria",fecha="11-11-2010",escultor="Collemi, Ra\xc3\xbal",pais="Argentina",material="Madera",imagen="EsculturasFotos\\528.JPG",direccion="Col\xc3\xb3n 234 - Policia Federal Argentina",lat="-27.456029",lng="-58.985145",premio="-")\n\tdb.escultura.insert(nombre="Connection",fecha="12-11-2010",escultor="Esterbauer, Stefan",pais="Austria",material="M\xc3\xa1rmol travertino",imagen="EsculturasFotos\\529.JPG",direccion="Corrientes 1130",lat="-27.439779",lng="-58.994",premio="-")\n\tdb.escultura.insert(nombre="Charnela",fecha="15-11-2010",escultor="Rebolledo, Dalmiro",pais="Argentina",material="Metal",imagen="EsculturasFotos\\530.JPG",direccion="Av. V\xc3\xa9lez S\xc3\xa1rfield 30",lat="-27.457302",lng="-58.978987",premio="-")\n\tdb.escultura.insert(nombre="Vuelo solidario",fecha="9-12-2009",escultor="Fabriciano",pais="Argentina",material="Madera - Metal",imagen="EsculturasFotos\\531.jpg",direccion="Av. 25 de Mayo 899",lat="-27.44414",lng="-58.994552",premio="-")\n\tdb.escultura.insert(nombre="Contracara ",fecha="9-12-2010",escultor="Fabriciano",pais="Argentina",material="Marmol Travertino",imagen="EsculturasFotos\\532.JPG",direccion="Ameghino 656",lat="-27.459394",lng="-58.984257",premio="-")\n\tdb.escultura.insert(nombre="Simbolismo Vital",fecha="-",escultor="Abalos Cussi  Aguedo",pais="Argentina",material="Marmol Travertino",imagen="EsculturasFotos\\533.jpg",direccion="Av. 25 de Mayo 1850",lat="-27.436367",lng="-59.003001",premio="-")\n\tdb.escultura.insert(nombre="Vagabundo",fecha="27-5-2011",escultor="Fabriciano",pais="Argentina",material="Marmol - Acero Inoxidable ",imagen="EsculturasFotos\\534.jpg",direccion="Av. Italia 50",lat="-27.454655",lng="-58.981651",premio="-")\n\tdb.escultura.insert(nombre="Catedral Espacial",fecha="3-6-2011",escultor="Mabel Remeseiro",pais="Argentina",material="Metal",imagen="EsculturasFotos\\535.JPG",direccion="Av. 25 de Mayo 2350",lat="-27.433149",lng="-59.008588",premio="-")\n\tdb.escultura.insert(nombre="Dialogo ",fecha="-",escultor="Fausto Caner",pais="Argentina ",material="Lava Bolcanica ",imagen="EsculturasFotos\\536.JPG",direccion="Frondizi 217",lat="-27.453694",lng="-58.987519",premio="-")\n\tdb.escultura.insert(nombre="Cecilia Creiman de Kuc",fecha="-",escultor="Mimo Eidman",pais="Argentina",material="Marmol Travertino",imagen="EsculturasFotos\\537.JPG",direccion="Av. Marconi y Av. Hernandarias - Cementerio Israelita",lat="-27.457396",lng="-59.008747",premio="-")\n\tdb.escultura.insert(nombre="Golda Dar de Katz",fecha="-",escultor="Mimo Eidman",pais="Argentina",material="Marmol Travertino",imagen="EsculturasFotos\\538.JPG",direccion="Av. Marconi y Av. Hernandarias - Cementerio Israelita",lat="-27.457415",lng="-59.008839",premio="-")\n\tdb.escultura.insert(nombre="San Mart\xc3\xadn",fecha="-",escultor="Luis Perlotti",pais="Argentina",material="Bronce",imagen="EsculturasFotos\\539.JPG",direccion="Av. Italia 150 - Municipalidad de Resistencia.",lat="-27.453982",lng="-58.980706",premio="-")\n\tdb.escultura.insert(nombre="Greenpeace",fecha="-",escultor="Ernesto Aragon ",pais="Argentina",material="Metal",imagen="EsculturasFotos\\540.JPG",direccion="Av. Sarmiento 200 al 300",lat="-27.449276",lng="-58.984418",premio="-")\n\tdb.escultura.insert(nombre="La Memoria de los Tiempos",fecha="2-9-2011",escultor="Daniel Ventura",pais="Argentina",material="Madera",imagen="EsculturasFotos\\541.JPG",direccion="Barrio Felipe Gallardo ",lat="-27.407395",lng="-58.966582",premio="-")\n\tdb.escultura.insert(nombre="Cabeza",fecha="6-9-2011",escultor="Aurelio Macchi",pais="Argentina ",material="Cemento",imagen="EsculturasFotos\\542.JPG",direccion="Peatonal Juan D. Per\xc3\xb3n 120",lat="-27.451714",lng="-58.989281",premio="-")\n\tdb.escultura.insert(nombre="Mensaje de paz",fecha="10-9-2011",escultor="Fabriciano",pais="Argentina",material="Acero Inoxidable",imagen="EsculturasFotos\\543.JPG",direccion="Parque Urbano Tiro Federal ",lat="-27.47053",lng="-58.977574",premio="-")\n\tdb.escultura.insert(nombre="1492",fecha="-",escultor="Juan Bengler",pais="Argentian",material="Marmol Travertino",imagen="EsculturasFotos\\544.JPG",direccion="Av. De los Inmigrantes 1001 - Museum",lat="-27.437527",lng="-58.980894",premio="-")\n\tdb.escultura.insert(nombre="Soporte",fecha="28-10-2011",escultor="Fabriciano",pais="Argentina",material="Marmol Trvertino",imagen="EsculturasFotos\\545.JPG",direccion="Pellegrini 212 - CPCE",lat="-27.451033",lng="-58.982801",premio="-")\n\tdb.escultura.insert(nombre="Idea Global",fecha="27-12-2011",escultor="Vahe Thokmajyan ",pais="Canada",material="Marmol Travertino",imagen="EsculturasFotos\\546.JPG",direccion="Brown 70",lat="-27.45020924997419",lng="-58.98411512374878",premio="-")\n\tdb.escultura.insert(nombre="Madre Escudo ",fecha="1-1-2012",escultor="Nestor Javier Confalonieri",pais="Argentina",material="Marmol Travertino",imagen="EsculturasFotos\\547.JPG",direccion="Av. Velez Sarfield   441",lat="-27.453884",lng="-58.97579",premio="Tercer Premio - Bienal Internacional de Escultura 2010 ")\n\tdb.escultura.insert(nombre="Maternidad",fecha="7-2-2012",escultor="-",pais="-",material="Bronce",imagen="EsculturasFotos\\548.JPG",direccion="Av. Alberdi 236",lat="-27.453008",lng="-58.988477",premio="-")\n\tdb.escultura.insert(nombre="La Siesta",fecha="20-3-2012",escultor="Gregorio La Ferrere",pais="Argentina",material="Cemento",imagen="EsculturasFotos\\549.JPG",direccion="Av. Sarmiento 400 al 500",lat="-27.447805",lng="-58.982836",premio="-")\n\tdb.escultura.insert(nombre="Movi-Viento",fecha="22-6-2012",escultor="David Abt",pais="Argentina",material="Acero Inoxidable",imagen="EsculturasFotos\\550.JPG",direccion="Santa Fe  138",lat="-27.448488",lng="-58.985902",premio="-")\n\tdb.escultura.insert(nombre="Donde esta mama, donde esta papa",fecha="13-7-2012",escultor="Baku Inoue",pais="Japon",material="Marmol Travertino",imagen="EsculturasFotos\\551.JPG",direccion="Av. De los Inmigrantes 1001 - Museum",lat="-27.436265",lng="-58.981503",premio="-")\n\tdb.escultura.insert(nombre="Fraternidad II",fecha="17-7-2012",escultor="Fabriciano",pais="Argentina",material="Marmol Travertino",imagen="EsculturasFotos\\552.JPG",direccion="Julio A. Roca 1647",lat="-27.438841",lng="-59.002228",premio="-")\n\tdb.escultura.insert(nombre="Fraternidad III",fecha="17-7-2012",escultor="Fabriciano",pais="Argentina",material="Marmol Travertino",imagen="EsculturasFotos\\553.JPG",direccion="Julio A. Roca 1669",lat="-27.4387",lng="-59.002394",premio="-")\n\tdb.escultura.insert(nombre="Caminos de la Vida",fecha="27-7-2012",escultor="Fabriciano",pais="Argentina",material="Marmol Travertino- Acero Inoxidable",imagen="EsculturasFotos\\554.JPG",direccion="Av. Italia 191 - Vialidad Nacional",lat="-27.453427",lng="-58.980626",premio="-")\n\tdb.escultura.insert(nombre="Estudio",fecha="18/010/2012",escultor="Nevot Antonio Miguel",pais="Argentina",material="Bronce",imagen="EsculturasFotos\\555.jpg",direccion="Brown 42",lat="-27.449971",lng="-58.984392",premio="-")\n\tdb.escultura.insert(nombre="Esperando el encuentro",fecha="8-11-2012",escultor="Mercedes Valsecchi",pais="Argentina",material="Resina",imagen="EsculturasFotos\\556.JPG",direccion="Av. Alberdi 354",lat="-27.453913",lng="-58.989522",premio="-")\n\tdb.escultura.insert(nombre="Simplemente Mujer",fecha="15-11-2012",escultor="Fabriciano",pais="Argentina",material="Marmol",imagen="EsculturasFotos\\557.JPG",direccion="Av. Wilde 701 ",lat="-27.441669",lng="-58.984783",premio="-")\n\tdb.escultura.insert(nombre="Sin Titulo",fecha="29-11-2012",escultor="Zulema Adaime",pais="Argentina",material="Metal",imagen="EsculturasFotos\\558.jpg",direccion="Cervantes 710",lat="-27.462236",lng="-58.986371",premio="-")\n\tdb.escultura.insert(nombre="Vuelo de Amistad",fecha="3-12-2012",escultor="Fabriciano",pais="Argentina",material="Marmol Travertino",imagen="EsculturasFotos\\559.jpg",direccion="Julio A. Roca 1785",lat="-27.437777",lng="-59.003445",premio="-")\n\tdb.escultura.insert(nombre="Vuelo a la Eternidad",fecha="3-12-2012",escultor="fabriciano",pais="Argentina",material="Marmol Travertino",imagen="EsculturasFotos\\560.JPG",direccion="Julio A. Roca 1720",lat="-27.438135",lng="-59.002857",premio="-")\n\tdb.escultura.insert(nombre="Rompecabeza",fecha="6-12-2012",escultor="Wang Lan-Biao",pais="Taiwan",material="Marmol Travertino",imagen="EsculturasFotos\\561.jpg",direccion="Av. Alvear 50 - Canal 9",lat="-27.456914",lng="-58.993879",premio="-")\n\tdb.escultura.insert(nombre="Coya, Toba, Mapuche",fecha="28-12-2012",escultor="Nestor Vildoza",pais="Argentina",material="Marmol Travertino",imagen="EsculturasFotos\\562.JPG",direccion="Av. de los Inmigrantes, Rambla de las Esculturas",lat="-27.438367",lng="-58.981168",premio="-")\n\tdb.escultura.insert(nombre="Bolsa de Leche",fecha="28-12-2012",escultor="Mahadev Prabhudesai ",pais="India",material="Marmol Travertino",imagen="EsculturasFotos\\563.JPG",direccion="Av. de los Inmigrantes, Rambla de las Esculturas",lat="-27.438541",lng="-58.981452",premio="-")\n\tdb.escultura.insert(nombre="Progreso Global",fecha="28-12-2012",escultor="Levon Tokmajyan ",pais="Armenia",material="Marmol Travertino",imagen="EsculturasFotos\\564.JPG",direccion="Av. de los Inmigrantes, Rambla de las Esculturas",lat="-27.438929",lng="-58.981871",premio="-")\n\tdb.escultura.insert(nombre="Memorando de un investigador Interestelar",fecha="28-12-2012",escultor=" Im Ho Young ",pais="Corea del Sur",material="Marmol Travertino",imagen="EsculturasFotos\\565.JPG",direccion="Av. de los Inmigrantes, Rambla de las Esculturas",lat="-27.438967",lng="-58.981916",premio="-")\n\tdb.escultura.insert(nombre="Svela",fecha="28-12-2012",escultor="Elias Naman ",pais="Siria",material="Marmol Travertino",imagen="EsculturasFotos\\566.JPG",direccion="Av. de los Inmigrantes, Rambla de las Esculturas",lat="-27.439191",lng="-58.982155",premio="-")\n\tdb.escultura.insert(nombre="Interior",fecha="28-12-2012",escultor="Mario Lopes",pais="Portugal",material="Marmol Travertino",imagen="EsculturasFotos\\567.JPG",direccion="Av. de los Inmigrantes, Rambla de las Esculturas",lat="-27.439548",lng="-58.982485",premio="-")\n\tdb.escultura.insert(nombre="\xc3\x9altima",fecha="28-12-2012",escultor="Julia Farjat",pais="Argentina",material="Madera y Metal",imagen="EsculturasFotos\\568.JPG",direccion="Av. de los Inmigrantes, Rambla de las Esculturas",lat="-27.439595",lng="-58.982611",premio="-")\n\tdb.escultura.insert(nombre="El Bosque en Paz",fecha="28-12-2012",escultor="Baku Inoue ",pais="Japon",material="Marmol Travertino",imagen="EsculturasFotos\\569.JPG",direccion="Av. de los Inmigrantes, Rambla de las Esculturas",lat="-27.440133",lng="-58.983214",premio="-")\n\tdb.escultura.insert(nombre="Sexto Sol",fecha="28-12-2012",escultor="Carlos Monge ",pais="Mexico",material="Marmol Travertino",imagen="EsculturasFotos\\570.JPG",direccion="Av. de los Inmigrantes, Rambla de las Esculturas",lat="-27.440533",lng="-58.98364",premio="-")\n\tdb.escultura.insert(nombre="El Ultimo Baktun",fecha="28-12-2012",escultor="Nestor Alejandro Vildoza ",pais="Argentina",material="Marmol Travertino",imagen="EsculturasFotos\\571.JPG",direccion="Av. de los Inmigrantes, Rambla de las Esculturas",lat="-27.440302",lng="-58.983348",premio="-")\n\tdb.escultura.insert(nombre="Adelante",fecha="28-12-2012",escultor="Alessio Ranaldi ",pais="Italia",material="Marmol Travertino",imagen="EsculturasFotos\\572.jpg",direccion="Av. de los Inmigrantes, Rambla de las Esculturas",lat="-27.440683",lng="-58.983729",premio="-")\n\tdb.escultura.insert(nombre="Identidad",fecha="28-12-2012",escultor="Dario Klehr ",pais="Argentina",material="Cemento",imagen="EsculturasFotos\\573.JPG",direccion="Av. de los Inmigrantes, Rambla de las Esculturas",lat="-27.440179",lng="-58.983289",premio="-")\n\tdb.escultura.insert(nombre="Espejos  del Cielo",fecha="28-12-2012",escultor="Fernando Pintos",pais="Colombia",material="Marmol Travertino",imagen="EsculturasFotos\\574.JPG",direccion="Av. de los Inmigrantes, Rambla de las Esculturas",lat="-27.438019",lng="-58.980892",premio="-")\n\tdb.escultura.insert(nombre="T\xc3\xadtulo desconocido",fecha="-",escultor="Carlos Diaz Navarro ",pais="Argentina",material="Madera",imagen="EsculturasFotos\\575.JPG",direccion="Av. de los Inmigrantes, Rambla de las Esculturas",lat="-27.439445",lng="-58.982361",premio="-")\n\tdb.escultura.insert(nombre="Intitulada",fecha="28-12-2012",escultor="Jose Luis De Leo",pais="Argentina",material="Madera",imagen="EsculturasFotos\\576.JPG",direccion="Av. de los Inmigrantes, Rambla de las Esculturas",lat="-27.43861",lng="-58.981543",premio="-")\n\tdb.escultura.insert(nombre="El dia que la tierra pierda su color ",fecha="28-12-2012",escultor="Fabriciano",pais="Argentina",material="Granito",imagen="EsculturasFotos\\577.JPG",direccion="Av. de los Inmigrantes, Rambla de las Esculturas",lat="-27.440452",lng="-58.98356",premio="-")\n\tdb.escultura.insert(nombre="Universo",fecha="28-12-2012",escultor="Jorge Luiz Schr\xc3\xb6der",pais="Brasil",material="Madera",imagen="EsculturasFotos\\578.JPG",direccion="Av. de los Inmigrantes, Rambla de las Esculturas",lat="-27.439943",lng="-58.982989",premio="-")\n\tdb.escultura.insert(nombre="Natura",fecha="28-12-2012",escultor="Cobo Jes\xc3\xbas",pais="-",material="Madera",imagen="EsculturasFotos\\579.JPG",direccion="Av. de los Inmigrantes, Rambla de las Esculturas",lat="-27.439319",lng="-58.982235",premio="-")\n\tdb.escultura.insert(nombre="Pareja Astral",fecha="-",escultor="M\xc3\xb3nica  Chames ",pais="Argentina",material="Cemento",imagen="EsculturasFotos\\580.JPG",direccion="Av. de los Inmigrantes, Rambla de las Esculturas",lat="-27.439081",lng="-58.982053",premio="-")\n\tdb.escultura.insert(nombre="Doma",fecha="11-4-2012",escultor="Alber H. Hussman",pais="Alemania",material="Cemento",imagen="EsculturasFotos\\581.jpg",direccion="Av. Sarmiento 726",lat="-27.445249",lng="-58.979816",premio="-")\n\tdb.escultura.insert(nombre="Desde Adentro",fecha="9-5-2012",escultor="Eduardo Ledante",pais="Argentina",material="Madera",imagen="EsculturasFotos\\582.jpg",direccion="Salta 1117 - Escuela San Roque U.E.P N\xc2\xb0 31",lat="-27.444558",lng="-58.999304",premio="-")\n\tdb.escultura.insert(nombre="Origenes",fecha="14-5-2013",escultor="Mar\xc3\xada In\xc3\xa9s  Palero",pais="Argentina",material="Madera",imagen="EsculturasFotos\\583.JPG",direccion="Av. Rivadavia 260 - Comisar\xc3\xada Segunda",lat="-27.445163",lng="-58.984333",premio="-")\n\tdb.escultura.insert(nombre="Pedestal de Amor",fecha="17-6-2012",escultor="Patricia Staub",pais="Argentina",material="Bronce",imagen="EsculturasFotos\\584.jpg",direccion="Mitre 418",lat="-27.447167281971023",lng="-58.983755707740784",premio="-")\n\tdb.escultura.insert(nombre="Victoria II",fecha="9-8-2013",escultor="Fabriciano",pais="Argentina",material="Marmol Travertino",imagen="EsculturasFotos\\585.jpg",direccion="Pellegrini 575 - Biofar Imagen",lat="-27.448196",lng="-58.979832",premio="-")\n\tdb.escultura.insert(nombre="Energia Vital I",fecha="26-11-2013",escultor="Fabriciano",pais="Argentina",material="Marmol Travertino",imagen="EsculturasFotos\\586.jpg",direccion="Av. Italia 1436",lat="-27.44383958709729",lng="-58.96952164359391",premio="-")\n\tdb.escultura.insert(nombre="Familia VI",fecha="18-12-2013",escultor="Fabriciano",pais="Argentina",material="Hierro",imagen="EsculturasFotos\\587.jpg",direccion="Av. Italia 102",lat="-27.45421033366085",lng="-58.981081964448094",premio="-")\n\tdb.escultura.insert(nombre="Cuando cantaba en N\xc2\xb4vik\xc3\xa9 II",fecha="30-12-2013",escultor="Eidman, Mimo",pais="Argentina",material="Hierro",imagen="EsculturasFotos\\588.jpg",direccion="Santa Fe 1002",lat="-27.441547",lng="-58.993715",premio="-")\n\tdb.escultura.insert(nombre="El Gemido de un Fuelle",fecha="7-3-2014",escultor="Francisco Martire",pais="Argentina",material="Cemento",imagen="EsculturasFotos\\588.jpg",direccion="Av. Sarmiento 400 al 500",lat="-27.447358",lng="-58.982337",premio="-")\n\tdb.escultura.insert(nombre="Milo I",fecha="7-3-2014",escultor="Milo Locket",pais="Argentina",material="Chapa",imagen="EsculturasFotos\\590.jpg",direccion="Av. Sarmiento 500 al 600",lat="-27.447091",lng="-58.982047",premio="-")\n\tdb.escultura.insert(nombre="Pujanza",fecha="28-3-2014",escultor="Fabriciano",pais="Argentina",material="M\xc3\xa1rmol Travertino",imagen="EsculturasFotos\\590.jpg",direccion="Julio A. Roca 1765",lat="-27.438165",lng="-59.003039",premio="-")\n\tdb.escultura.insert(nombre="Solidaridad II",fecha="28-3-2014",escultor="Fabriciano",pais="Argentina",material="M\xc3\xa1rmol Travertino y Rosso Verona",imagen="EsculturasFotos\\592.jpg",direccion="Julio A. Roca 1725",lat="-27.437903",lng="-59.003325",premio="-")\n\n\n\n\nresponse._vars=response._caller(cargar)\n'
p7
sS'snapshot'
p8
(dp9
S'exception'
p10
(dp11
S'__getslice__'
p12
S"<method-wrapper '__getslice__' of exceptions.SyntaxError object>"
p13
sS'text'
p14
S'\'\\tdb.escultura.insert(nombre="Principio",fecha="2..."",lat="-27.442711",lng="-59.016814",premio="-")\\n\''
p15
sS'__str__'
p16
S"<method-wrapper '__str__' of exceptions.SyntaxError object>"
p17
sS'__reduce__'
p18
S'<built-in method __reduce__ of exceptions.SyntaxError object>'
p19
sS'__dict__'
p20
S'{}'
p21
sS'__sizeof__'
p22
S'<built-in method __sizeof__ of exceptions.SyntaxError object>'
p23
sS'__init__'
p24
S"<method-wrapper '__init__' of exceptions.SyntaxError object>"
p25
sS'__setattr__'
p26
S"<method-wrapper '__setattr__' of exceptions.SyntaxError object>"
p27
sS'__reduce_ex__'
p28
S'<built-in method __reduce_ex__ of exceptions.SyntaxError object>'
p29
sS'__new__'
p30
S'<built-in method __new__ of type object>'
p31
sS'__format__'
p32
S'<built-in method __format__ of exceptions.SyntaxError object>'
p33
sS'__class__'
p34
S"<type 'exceptions.SyntaxError'>"
p35
sS'filename'
p36
S"r'F:\\Informatorio\\web2py\\applications\\BC\\controllers/HomeController.py'"
p37
sS'lineno'
p38
S'347'
p39
sS'msg'
p40
S"'invalid syntax'"
p41
sS'__doc__'
p42
S"'Invalid syntax.'"
p43
sS'__getitem__'
p44
S"<method-wrapper '__getitem__' of exceptions.SyntaxError object>"
p45
sS'__setstate__'
p46
S'<built-in method __setstate__ of exceptions.SyntaxError object>'
p47
sS'__getattribute__'
p48
S"<method-wrapper '__getattribute__' of exceptions.SyntaxError object>"
p49
sS'print_file_and_line'
p50
S'None'
p51
sS'args'
p52
S'(\'invalid syntax\', (r\'F:\\Informatorio\\web2py\\applications\\BC\\controllers/HomeController.py\', 347, 202, \'\\tdb.escultura.insert(nombre="Principio",fecha="2..."",lat="-27.442711",lng="-59.016814",premio="-")\\n\'))'
p53
sS'__subclasshook__'
p54
S'<built-in method __subclasshook__ of type object>'
p55
sS'offset'
p56
S'202'
p57
sS'__unicode__'
p58
S'<built-in method __unicode__ of exceptions.SyntaxError object>'
p59
sS'__delattr__'
p60
S"<method-wrapper '__delattr__' of exceptions.SyntaxError object>"
p61
sS'__repr__'
p62
S"<method-wrapper '__repr__' of exceptions.SyntaxError object>"
p63
sS'__hash__'
p64
S"<method-wrapper '__hash__' of exceptions.SyntaxError object>"
p65
ssS'evalue'
p66
S'invalid syntax (controllers/HomeController.py, line 347)'
p67
sS'request'
p68
cgluon.html
XML_unpickle
p69
(S's\xb6[\x00\x00<div><table><tr><td style="font-weight:bold;vertical-align:top;">ajax</td><td style="vertical-align:top;">:</td><td><div>False</div></td></tr><tr><td style="font-weight:bold;vertical-align:top;">application</td><td style="vertical-align:top;">:</td><td><div>BC</div></td></tr><tr><td style="font-weight:bold;vertical-align:top;">args</td><td style="vertical-align:top;">:</td><td><div><table></table></div></td></tr><tr><td style="font-weight:bold;vertical-align:top;">cid</td><td style="vertical-align:top;">:</td><td><div>None</div></td></tr><tr><td style="font-weight:bold;vertical-align:top;">client</td><td style="vertical-align:top;">:</td><td><div>127.0.0.1</div></td></tr><tr><td style="font-weight:bold;vertical-align:top;">controller</td><td style="vertical-align:top;">:</td><td><div>HomeController</div></td></tr><tr><td style="font-weight:bold;vertical-align:top;">cookies</td><td style="vertical-align:top;">:</td><td><div><table><tr><td style="font-weight:bold;vertical-align:top;">session_id_admin</td><td style="vertical-align:top;">:</td><td><div>127.0.0.1-a7a7056a-5f8e-41da-b87b-70043124c619<table><tr><td style="font-weight:bold;vertical-align:top;">comment</td><td style="vertical-align:top;">:</td><td><div></div></td></tr><tr><td style="font-weight:bold;vertical-align:top;">domain</td><td style="vertical-align:top;">:</td><td><div></div></td></tr><tr><td style="font-weight:bold;vertical-align:top;">expires</td><td style="vertical-align:top;">:</td><td><div></div></td></tr><tr><td style="font-weight:bold;vertical-align:top;">httponly</td><td style="vertical-align:top;">:</td><td><div></div></td></tr><tr><td style="font-weight:bold;vertical-align:top;">max-age</td><td style="vertical-align:top;">:</td><td><div></div></td></tr><tr><td style="font-weight:bold;vertical-align:top;">path</td><td style="vertical-align:top;">:</td><td><div></div></td></tr><tr><td style="font-weight:bold;vertical-align:top;">secure</td><td style="vertical-align:top;">:</td><td><div></div></td></tr><tr><td style="font-weight:bold;vertical-align:top;">version</td><td style="vertical-align:top;">:</td><td><div></div></td></tr></table></div></td></tr><tr><td style="font-weight:bold;vertical-align:top;">session_id_bc</td><td style="vertical-align:top;">:</td><td><div>127.0.0.1-6dab64d9-e554-40c7-9bcd-d6a0a02ce5f8<table><tr><td style="font-weight:bold;vertical-align:top;">comment</td><td style="vertical-align:top;">:</td><td><div></div></td></tr><tr><td style="font-weight:bold;vertical-align:top;">domain</td><td style="vertical-align:top;">:</td><td><div></div></td></tr><tr><td style="font-weight:bold;vertical-align:top;">expires</td><td style="vertical-align:top;">:</td><td><div></div></td></tr><tr><td style="font-weight:bold;vertical-align:top;">httponly</td><td style="vertical-align:top;">:</td><td><div></div></td></tr><tr><td style="font-weight:bold;vertical-align:top;">max-age</td><td style="vertical-align:top;">:</td><td><div></div></td></tr><tr><td style="font-weight:bold;vertical-align:top;">path</td><td style="vertical-align:top;">:</td><td><div></div></td></tr><tr><td style="font-weight:bold;vertical-align:top;">secure</td><td style="vertical-align:top;">:</td><td><div></div></td></tr><tr><td style="font-weight:bold;vertical-align:top;">version</td><td style="vertical-align:top;">:</td><td><div></div></td></tr></table></div></td></tr><tr><td style="font-weight:bold;vertical-align:top;">session_id_bcf</td><td style="vertical-align:top;">:</td><td><div>127.0.0.1-a4fb3545-97d7-4e09-a78d-da0d0992ce14<table><tr><td style="font-weight:bold;vertical-align:top;">comment</td><td style="vertical-align:top;">:</td><td><div></div></td></tr><tr><td style="font-weight:bold;vertical-align:top;">domain</td><td style="vertical-align:top;">:</td><td><div></div></td></tr><tr><td style="font-weight:bold;vertical-align:top;">expires</td><td style="vertical-align:top;">:</td><td><div></div></td></tr><tr><td style="font-weight:bold;vertical-align:top;">httponly</td><td style="vertical-align:top;">:</td><td><div></div></td></tr><tr><td style="font-weight:bold;vertical-align:top;">max-age</td><td style="vertical-align:top;">:</td><td><div></div></td></tr><tr><td style="font-weight:bold;vertical-align:top;">path</td><td style="vertical-align:top;">:</td><td><div></div></td></tr><tr><td style="font-weight:bold;vertical-align:top;">secure</td><td style="vertical-align:top;">:</td><td><div></div></td></tr><tr><td style="font-weight:bold;vertical-align:top;">version</td><td style="vertical-align:top;">:</td><td><div></div></td></tr></table></div></td></tr></table></div></td></tr><tr><td style="font-weight:bold;vertical-align:top;">env</td><td style="vertical-align:top;">:</td><td><div><table><tr><td style="font-weight:bold;vertical-align:top;">HTTP_ACCEPT</td><td style="vertical-align:top;">:</td><td><div>text/html,application/xhtml+xml,application/xml;q=0.9,image/webp,*/*;q=0.8</div></td></tr><tr><td style="font-weight:bold;vertical-align:top;">HTTP_ACCEPT_ENCODING</td><td style="vertical-align:top;">:</td><td><div>gzip, deflate, sdch</div></td></tr><tr><td style="font-weight:bold;vertical-align:top;">HTTP_ACCEPT_LANGUAGE</td><td style="vertical-align:top;">:</td><td><div>es-419,es;q=0.8</div></td></tr><tr><td style="font-weight:bold;vertical-align:top;">HTTP_CACHE_CONTROL</td><td style="vertical-align:top;">:</td><td><div>max-age=0</div></td></tr><tr><td style="font-weight:bold;vertical-align:top;">HTTP_CONNECTION</td><td style="vertical-align:top;">:</td><td><div>keep-alive</div></td></tr><tr><td style="font-weight:bold;vertical-align:top;">HTTP_COOKIE</td><td style="vertical-align:top;">:</td><td><div>session_id_bcf=127.0.0.1-a4fb3545-97d7-4e09-a78d-da0d0992ce14; session_id_bc=127.0.0.1-6dab64d9-e554-40c7-9bcd-d6a0a02ce5f8; session_id_admin=127.0.0.1-a7a7056a-5f8e-41da-b87b-70043124c619</div></td></tr><tr><td style="font-weight:bold;vertical-align:top;">HTTP_HOST</td><td style="vertical-align:top;">:</td><td><div>127.0.0.1:8000</div></td></tr><tr><td style="font-weight:bold;vertical-align:top;">HTTP_UPGRADE_INSECURE_REQUESTS</td><td style="vertical-align:top;">:</td><td><div>1</div></td></tr><tr><td style="font-weight:bold;vertical-align:top;">HTTP_USER_AGENT</td><td style="vertical-align:top;">:</td><td><div>Mozilla/5.0 (Windows NT 6.1; WOW64) AppleWebKit/537.36 (KHTML, like Gecko) Chrome/51.0.2704.103 Safari/537.36</div></td></tr><tr><td style="font-weight:bold;vertical-align:top;">PATH_INFO</td><td style="vertical-align:top;">:</td><td><div>/BC/HomeController/cargar</div></td></tr><tr><td style="font-weight:bold;vertical-align:top;">QUERY_STRING</td><td style="vertical-align:top;">:</td><td><div></div></td></tr><tr><td style="font-weight:bold;vertical-align:top;">REMOTE_ADDR</td><td style="vertical-align:top;">:</td><td><div>127.0.0.1</div></td></tr><tr><td style="font-weight:bold;vertical-align:top;">REMOTE_PORT</td><td style="vertical-align:top;">:</td><td><div>52378</div></td></tr><tr><td style="font-weight:bold;vertical-align:top;">REQUEST_METHOD</td><td style="vertical-align:top;">:</td><td><div>GET</div></td></tr><tr><td style="font-weight:bold;vertical-align:top;">SCRIPT_NAME</td><td style="vertical-align:top;">:</td><td><div></div></td></tr><tr><td style="font-weight:bold;vertical-align:top;">SERVER_NAME</td><td style="vertical-align:top;">:</td><td><div>Fer-PC</div></td></tr><tr><td style="font-weight:bold;vertical-align:top;">SERVER_PORT</td><td style="vertical-align:top;">:</td><td><div>8000</div></td></tr><tr><td style="font-weight:bold;vertical-align:top;">SERVER_PROTOCOL</td><td style="vertical-align:top;">:</td><td><div>HTTP/1.1</div></td></tr><tr><td style="font-weight:bold;vertical-align:top;">SERVER_SOFTWARE</td><td style="vertical-align:top;">:</td><td><div>Rocket 1.2.6</div></td></tr><tr><td style="font-weight:bold;vertical-align:top;">app_folders</td><td style="vertical-align:top;">:</td><td><div>set([&#x27;F:\\\\Informatorio\\\\web2py\\\\applications\\\\BCF\\\\&#x27;, &#x27;F:\\\\Informatorio\\\\web2py\\\\applications\\\\BC\\\\&#x27;, &#x27;F:\\\\Informatorio\\\\web2py\\\\applications\\\\admin\\\\&#x27;, &#x27;F:\\\\Informatorio\\\\web2py\\\\applications\\\\welcome\\\\&#x27;])</div></td></tr><tr><td style="font-weight:bold;vertical-align:top;">applications_parent</td><td style="vertical-align:top;">:</td><td><div>F:\\Informatorio\\web2py</div></td></tr><tr><td style="font-weight:bold;vertical-align:top;">cmd_args</td><td style="vertical-align:top;">:</td><td><div><table></table></div></td></tr><tr><td style="font-weight:bold;vertical-align:top;">cmd_options</td><td style="vertical-align:top;">:</td><td><div>&lt;Values at 0x3121f58: {&#x27;verbose&#x27;: False, &#x27;ip&#x27;: &#x27;127.0.0.1&#x27;, &#x27;debuglevel&#x27;: 30, &#x27;with_scheduler&#x27;: False, &#x27;shutdown_timeout&#x27;: 5, &#x27;taskbar&#x27;: False, &#x27;with_coverage&#x27;: False, &#x27;pid_filename&#x27;: &#x27;httpserver.pid&#x27;, &#x27;maxthreads&#x27;: None, &#x27;softcron&#x27;: False, &#x27;server_name&#x27;: &#x27;Fer-PC&#x27;, &#x27;bpython&#x27;: False, &#x27;nogui&#x27;: False, &#x27;port&#x27;: 8000, &#x27;print_errors&#x27;: False, &#x27;extcron&#x27;: False, &#x27;runcron&#x27;: False, &#x27;run_system_tests&#x27;: False, &#x27;test&#x27;: None, &#x27;folder&#x27;: &#x27;F:\\\\Informatorio\\\\web2py&#x27;, &#x27;config&#x27;: &#x27;&#x27;, &#x27;minthreads&#x27;: None, &#x27;shell&#x27;: None, &#x27;run&#x27;: &#x27;&#x27;, &#x27;log_filename&#x27;: &#x27;httpserver.log&#x27;, &#x27;profiler_dir&#x27;: None, &#x27;args&#x27;: [&#x27;&#x27;], &#x27;socket_timeout&#x27;: 5, &#x27;ssl_ca_certificate&#x27;: None, &#x27;scheduler&#x27;: None, &#x27;interfaces&#x27;: None, &#x27;ssl_private_key&#x27;: &#x27;&#x27;, &#x27;gae&#x27;: None, &#x27;password&#x27;: &#x27;******&#x27;, &#x27;request_queue_size&#x27;: 5, &#x27;ssl_certificate&#x27;: &#x27;&#x27;, &#x27;cronjob&#x27;: False, &#x27;numthreads&#x27;: None, &#x27;quiet&#x27;: False, &#x27;import_models&#x27;: False, &#x27;timeout&#x27;: 10, &#x27;plain&#x27;: False, &#x27;nobanner&#x27;: False}&gt;</div></td></tr><tr><td style="font-weight:bold;vertical-align:top;">db_sessions</td><td style="vertical-align:top;">:</td><td><div>set([])</div></td></tr><tr><td style="font-weight:bold;vertical-align:top;">debugging</td><td style="vertical-align:top;">:</td><td><div>False</div></td></tr><tr><td style="font-weight:bold;vertical-align:top;">gluon_parent</td><td style="vertical-align:top;">:</td><td><div>F:\\Informatorio\\web2py</div></td></tr><tr><td style="font-weight:bold;vertical-align:top;">http_accept</td><td style="vertical-align:top;">:</td><td><div>text/html,application/xhtml+xml,application/xml;q=0.9,image/webp,*/*;q=0.8</div></td></tr><tr><td style="font-weight:bold;vertical-align:top;">http_accept_encoding</td><td style="vertical-align:top;">:</td><td><div>gzip, deflate, sdch</div></td></tr><tr><td style="font-weight:bold;vertical-align:top;">http_accept_language</td><td style="vertical-align:top;">:</td><td><div>es-419,es;q=0.8</div></td></tr><tr><td style="font-weight:bold;vertical-align:top;">http_cache_control</td><td style="vertical-align:top;">:</td><td><div>max-age=0</div></td></tr><tr><td style="font-weight:bold;vertical-align:top;">http_connection</td><td style="vertical-align:top;">:</td><td><div>keep-alive</div></td></tr><tr><td style="font-weight:bold;vertical-align:top;">http_cookie</td><td style="vertical-align:top;">:</td><td><div>session_id_bcf=127.0.0.1-a4fb3545-97d7-4e09-a78d-da0d0992ce14; session_id_bc=127.0.0.1-6dab64d9-e554-40c7-9bcd-d6a0a02ce5f8; session_id_admin=127.0.0.1-a7a7056a-5f8e-41da-b87b-70043124c619</div></td></tr><tr><td style="font-weight:bold;vertical-align:top;">http_host</td><td style="vertical-align:top;">:</td><td><div>127.0.0.1:8000</div></td></tr><tr><td style="font-weight:bold;vertical-align:top;">http_upgrade_insecure_requests</td><td style="vertical-align:top;">:</td><td><div>1</div></td></tr><tr><td style="font-weight:bold;vertical-align:top;">http_user_agent</td><td style="vertical-align:top;">:</td><td><div>Mozilla/5.0 (Windows NT 6.1; WOW64) AppleWebKit/537.36 (KHTML, like Gecko) Chrome/51.0.2704.103 Safari/537.36</div></td></tr><tr><td style="font-weight:bold;vertical-align:top;">is_jython</td><td style="vertical-align:top;">:</td><td><div>False</div></td></tr><tr><td style="font-weight:bold;vertical-align:top;">is_pypy</td><td style="vertical-align:top;">:</td><td><div>False</div></td></tr><tr><td style="font-weight:bold;vertical-align:top;">is_source</td><td style="vertical-align:top;">:</td><td><div>False</div></td></tr><tr><td style="font-weight:bold;vertical-align:top;">local_hosts</td><td style="vertical-align:top;">:</td><td><div><table><tr><td><div>::ffff:127.0.0.1</div></td></tr><tr><td><div>::1</div></td></tr><tr><td><div>192.168.0.16</div></td></tr><tr><td><div>fe80::124:1551:9680:6a50%13</div></td></tr><tr><td><div>Fer-PC</div></td></tr><tr><td><div>127.0.0.1</div></td></tr></table></div></td></tr><tr><td style="font-weight:bold;vertical-align:top;">path_info</td><td style="vertical-align:top;">:</td><td><div>/BC/HomeController/cargar</div></td></tr><tr><td style="font-weight:bold;vertical-align:top;">query_string</td><td style="vertical-align:top;">:</td><td><div></div></td></tr><tr><td style="font-weight:bold;vertical-align:top;">remote_addr</td><td style="vertical-align:top;">:</td><td><div>127.0.0.1</div></td></tr><tr><td style="font-weight:bold;vertical-align:top;">remote_port</td><td style="vertical-align:top;">:</td><td><div>52378</div></td></tr><tr><td style="font-weight:bold;vertical-align:top;">request_method</td><td style="vertical-align:top;">:</td><td><div>GET</div></td></tr><tr><td style="font-weight:bold;vertical-align:top;">request_uri</td><td style="vertical-align:top;">:</td><td><div>/BC/HomeController/cargar</div></td></tr><tr><td style="font-weight:bold;vertical-align:top;">script_name</td><td style="vertical-align:top;">:</td><td><div></div></td></tr><tr><td style="font-weight:bold;vertical-align:top;">server_name</td><td style="vertical-align:top;">:</td><td><div>Fer-PC</div></td></tr><tr><td style="font-weight:bold;vertical-align:top;">server_port</td><td style="vertical-align:top;">:</td><td><div>8000</div></td></tr><tr><td style="font-weight:bold;vertical-align:top;">server_protocol</td><td style="vertical-align:top;">:</td><td><div>HTTP/1.1</div></td></tr><tr><td style="font-weight:bold;vertical-align:top;">server_software</td><td style="vertical-align:top;">:</td><td><div>Rocket 1.2.6</div></td></tr><tr><td style="font-weight:bold;vertical-align:top;">web2py_path</td><td style="vertical-align:top;">:</td><td><div>F:\\Informatorio\\web2py</div></td></tr><tr><td style="font-weight:bold;vertical-align:top;">web2py_version</td><td style="vertical-align:top;">:</td><td><div>2.14.6-stable+timestamp.2016.05.10.00.21.47</div></td></tr><tr><td style="font-weight:bold;vertical-align:top;">wsgi.errors</td><td style="vertical-align:top;">:</td><td><div>&lt;open file &#x27;&lt;stderr&gt;&#x27;, mode &#x27;w&#x27; at 0x01CED0D0&gt;</div></td></tr><tr><td style="font-weight:bold;vertical-align:top;">wsgi.file_wrapper</td><td style="vertical-align:top;">:</td><td><div>&lt;class wsgiref.util.FileWrapper at 0x03213ED8&gt;</div></td></tr><tr><td style="font-weight:bold;vertical-align:top;">wsgi.input</td><td style="vertical-align:top;">:</td><td><div>&lt;socket._fileobject object at 0x04A91F30&gt;</div></td></tr><tr><td style="font-weight:bold;vertical-align:top;">wsgi.multiprocess</td><td style="vertical-align:top;">:</td><td><div>False</div></td></tr><tr><td style="font-weight:bold;vertical-align:top;">wsgi.multithread</td><td style="vertical-align:top;">:</td><td><div>True</div></td></tr><tr><td style="font-weight:bold;vertical-align:top;">wsgi.run_once</td><td style="vertical-align:top;">:</td><td><div>False</div></td></tr><tr><td style="font-weight:bold;vertical-align:top;">wsgi.url_scheme</td><td style="vertical-align:top;">:</td><td><div>http</div></td></tr><tr><td style="font-weight:bold;vertical-align:top;">wsgi.version</td><td style="vertical-align:top;">:</td><td><div><table><tr><td><div>1</div></td></tr><tr><td><div>0</div></td></tr></table></div></td></tr><tr><td style="font-weight:bold;vertical-align:top;">wsgi_errors</td><td style="vertical-align:top;">:</td><td><div>&lt;open file &#x27;&lt;stderr&gt;&#x27;, mode &#x27;w&#x27; at 0x01CED0D0&gt;</div></td></tr><tr><td style="font-weight:bold;vertical-align:top;">wsgi_file_wrapper</td><td style="vertical-align:top;">:</td><td><div>&lt;class wsgiref.util.FileWrapper at 0x03213ED8&gt;</div></td></tr><tr><td style="font-weight:bold;vertical-align:top;">wsgi_input</td><td style="vertical-align:top;">:</td><td><div>&lt;socket._fileobject object at 0x04A91F30&gt;</div></td></tr><tr><td style="font-weight:bold;vertical-align:top;">wsgi_multiprocess</td><td style="vertical-align:top;">:</td><td><div>False</div></td></tr><tr><td style="font-weight:bold;vertical-align:top;">wsgi_multithread</td><td style="vertical-align:top;">:</td><td><div>True</div></td></tr><tr><td style="font-weight:bold;vertical-align:top;">wsgi_run_once</td><td style="vertical-align:top;">:</td><td><div>False</div></td></tr><tr><td style="font-weight:bold;vertical-align:top;">wsgi_url_scheme</td><td style="vertical-align:top;">:</td><td><div>http</div></td></tr><tr><td style="font-weight:bold;vertical-align:top;">wsgi_version</td><td style="vertical-align:top;">:</td><td><div><table><tr><td><div>1</div></td></tr><tr><td><div>0</div></td></tr></table></div></td></tr></table></div></td></tr><tr><td style="font-weight:bold;vertical-align:top;">extension</td><td style="vertical-align:top;">:</td><td><div>html</div></td></tr><tr><td style="font-weight:bold;vertical-align:top;">folder</td><td style="vertical-align:top;">:</td><td><div>F:\\Informatorio\\web2py\\applications\\BC\\</div></td></tr><tr><td style="font-weight:bold;vertical-align:top;">function</td><td style="vertical-align:top;">:</td><td><div>cargar</div></td></tr><tr><td style="font-weight:bold;vertical-align:top;">global_settings</td><td style="vertical-align:top;">:</td><td><div><table><tr><td style="font-weight:bold;vertical-align:top;">app_folders</td><td style="vertical-align:top;">:</td><td><div>set([&#x27;F:\\\\Informatorio\\\\web2py\\\\applications\\\\BCF\\\\&#x27;, &#x27;F:\\\\Informatorio\\\\web2py\\\\applications\\\\BC\\\\&#x27;, &#x27;F:\\\\Informatorio\\\\web2py\\\\applications\\\\admin\\\\&#x27;, &#x27;F:\\\\Informatorio\\\\web2py\\\\applications\\\\welcome\\\\&#x27;])</div></td></tr><tr><td style="font-weight:bold;vertical-align:top;">applications_parent</td><td style="vertical-align:top;">:</td><td><div>F:\\Informatorio\\web2py</div></td></tr><tr><td style="font-weight:bold;vertical-align:top;">cmd_args</td><td style="vertical-align:top;">:</td><td><div><table></table></div></td></tr><tr><td style="font-weight:bold;vertical-align:top;">cmd_options</td><td style="vertical-align:top;">:</td><td><div>&lt;Values at 0x3121f58: {&#x27;verbose&#x27;: False, &#x27;ip&#x27;: &#x27;127.0.0.1&#x27;, &#x27;debuglevel&#x27;: 30, &#x27;with_scheduler&#x27;: False, &#x27;shutdown_timeout&#x27;: 5, &#x27;taskbar&#x27;: False, &#x27;with_coverage&#x27;: False, &#x27;pid_filename&#x27;: &#x27;httpserver.pid&#x27;, &#x27;maxthreads&#x27;: None, &#x27;softcron&#x27;: False, &#x27;server_name&#x27;: &#x27;Fer-PC&#x27;, &#x27;bpython&#x27;: False, &#x27;nogui&#x27;: False, &#x27;port&#x27;: 8000, &#x27;print_errors&#x27;: False, &#x27;extcron&#x27;: False, &#x27;runcron&#x27;: False, &#x27;run_system_tests&#x27;: False, &#x27;test&#x27;: None, &#x27;folder&#x27;: &#x27;F:\\\\Informatorio\\\\web2py&#x27;, &#x27;config&#x27;: &#x27;&#x27;, &#x27;minthreads&#x27;: None, &#x27;shell&#x27;: None, &#x27;run&#x27;: &#x27;&#x27;, &#x27;log_filename&#x27;: &#x27;httpserver.log&#x27;, &#x27;profiler_dir&#x27;: None, &#x27;args&#x27;: [&#x27;&#x27;], &#x27;socket_timeout&#x27;: 5, &#x27;ssl_ca_certificate&#x27;: None, &#x27;scheduler&#x27;: None, &#x27;interfaces&#x27;: None, &#x27;ssl_private_key&#x27;: &#x27;&#x27;, &#x27;gae&#x27;: None, &#x27;password&#x27;: &#x27;******&#x27;, &#x27;request_queue_size&#x27;: 5, &#x27;ssl_certificate&#x27;: &#x27;&#x27;, &#x27;cronjob&#x27;: False, &#x27;numthreads&#x27;: None, &#x27;quiet&#x27;: False, &#x27;import_models&#x27;: False, &#x27;timeout&#x27;: 10, &#x27;plain&#x27;: False, &#x27;nobanner&#x27;: False}&gt;</div></td></tr><tr><td style="font-weight:bold;vertical-align:top;">db_sessions</td><td style="vertical-align:top;">:</td><td><div>set([])</div></td></tr><tr><td style="font-weight:bold;vertical-align:top;">debugging</td><td style="vertical-align:top;">:</td><td><div>False</div></td></tr><tr><td style="font-weight:bold;vertical-align:top;">gluon_parent</td><td style="vertical-align:top;">:</td><td><div>F:\\Informatorio\\web2py</div></td></tr><tr><td style="font-weight:bold;vertical-align:top;">is_jython</td><td style="vertical-align:top;">:</td><td><div>False</div></td></tr><tr><td style="font-weight:bold;vertical-align:top;">is_pypy</td><td style="vertical-align:top;">:</td><td><div>False</div></td></tr><tr><td style="font-weight:bold;vertical-align:top;">is_source</td><td style="vertical-align:top;">:</td><td><div>False</div></td></tr><tr><td style="font-weight:bold;vertical-align:top;">local_hosts</td><td style="vertical-align:top;">:</td><td><div><table><tr><td><div>::ffff:127.0.0.1</div></td></tr><tr><td><div>::1</div></td></tr><tr><td><div>192.168.0.16</div></td></tr><tr><td><div>fe80::124:1551:9680:6a50%13</div></td></tr><tr><td><div>Fer-PC</div></td></tr><tr><td><div>127.0.0.1</div></td></tr></table></div></td></tr><tr><td style="font-weight:bold;vertical-align:top;">web2py_version</td><td style="vertical-align:top;">:</td><td><div>2.14.6-stable+timestamp.2016.05.10.00.21.47</div></td></tr></table></div></td></tr><tr><td style="font-weight:bold;vertical-align:top;">is_https</td><td style="vertical-align:top;">:</td><td><div>False</div></td></tr><tr><td style="font-weight:bold;vertical-align:top;">is_local</td><td style="vertical-align:top;">:</td><td><div>True</div></td></tr><tr><td style="font-weight:bold;vertical-align:top;">is_restful</td><td style="vertical-align:top;">:</td><td><div>False</div></td></tr><tr><td style="font-weight:bold;vertical-align:top;">is_scheduler</td><td style="vertical-align:top;">:</td><td><div>False</div></td></tr><tr><td style="font-weight:bold;vertical-align:top;">is_shell</td><td style="vertical-align:top;">:</td><td><div>False</div></td></tr><tr><td style="font-weight:bold;vertical-align:top;">now</td><td style="vertical-align:top;">:</td><td><div>datetime.datetime(2016, 7, 10, 18, 55, 38, 745000)</div></td></tr><tr><td style="font-weight:bold;vertical-align:top;">raw_args</td><td style="vertical-align:top;">:</td><td><div></div></td></tr><tr><td style="font-weight:bold;vertical-align:top;">raw_extension</td><td style="vertical-align:top;">:</td><td><div>None</div></td></tr><tr><td style="font-weight:bold;vertical-align:top;">url</td><td style="vertical-align:top;">:</td><td><div>/BC/HomeController/cargar</div></td></tr><tr><td style="font-weight:bold;vertical-align:top;">utcnow</td><td style="vertical-align:top;">:</td><td><div>datetime.datetime(2016, 7, 10, 21, 55, 38, 745000)</div></td></tr><tr><td style="font-weight:bold;vertical-align:top;">wsgi</td><td style="vertical-align:top;">:</td><td><div>&lt;gluon.main.LazyWSGI object at 0x04669390&gt;</div></td></tr></table></div>'
tRp70
sS'frames'
p71
(lp72
(dp73
S'file'
p74
S'F:\\Informatorio\\web2py\\gluon\\restricted.py'
p75
sS'dump'
p76
(dp77
S'code'
p78
S'\'# -*- coding: utf-8 -*-\\n# intente algo como\\ndef ..."-")\\n\\n\\n\\n\\nresponse._vars=response._caller(cargar)\\n\''
p79
sS'layer'
p80
S"r'F:\\Informatorio\\web2py\\applications\\BC\\controllers/HomeController.py'"
p81
sS'global compile2'
p82
S'<function compile2>'
p83
sS'ccode'
p84
S'undefined'
p85
ssS'lnum'
p86
I226
sS'lines'
p87
(dp88
I224
S'            ccode = code'
p89
sI225
S'        else:'
p90
sI226
S'            ccode = compile2(code, layer)'
p91
sI227
S'        exec ccode in environment'
p92
sI228
S'    except HTTP:'
p93
sI229
S'        raise'
p94
sI230
S'    except RestrictedError:'
p95
sI221
S"    environment['__name__'] = '__restricted__'"
p96
sI222
S'    try:'
p97
sI223
S'        if isinstance(code, types.CodeType):'
p98
ssS'call'
p99
S'(code=\'# -*- coding: utf-8 -*-\\n# intente algo como\\ndef ..."-")\\n\\n\\n\\n\\nresponse._vars=response._caller(cargar)\\n\', environment={\'A\': <class \'gluon.html.A\'>, \'ANY_OF\': <class \'gluon.validators.ANY_OF\'>, \'ASSIGNJS\': <function ASSIGNJS>, \'AppConfig\': <function AppConfig>, \'Auth\': <class \'gluon.tools.Auth\'>, \'B\': <class \'gluon.html.B\'>, \'BEAUTIFY\': <class \'gluon.html.BEAUTIFY\'>, \'BODY\': <class \'gluon.html.BODY\'>, \'BR\': <class \'gluon.html.BR\'>, \'BUTTON\': <class \'gluon.html.BUTTON\'>, ...}, layer=r\'F:\\Informatorio\\web2py\\applications\\BC\\controllers/HomeController.py\')'
p100
sS'func'
p101
S'restricted'
p102
sa(dp103
g74
S'F:\\Informatorio\\web2py\\gluon\\restricted.py'
p104
sg76
(dp105
S'builtincompile'
p106
S'<built-in function compile>'
p107
sS'code'
p108
S'\'# -*- coding: utf-8 -*-\\n# intente algo como\\ndef ..."-")\\n\\n\\n\\n\\nresponse._vars=response._caller(cargar)\\n\''
p109
sS'code.rstrip'
p110
S'<built-in method rstrip of str object>'
p111
sS').replace'
p112
g85
sS'layer'
p113
S"r'F:\\Informatorio\\web2py\\applications\\BC\\controllers/HomeController.py'"
p114
ssg86
I209
sg87
(dp115
I204
S'def compile2(code, layer):'
p116
sI205
S'    """'
p117
sI206
S"    The ``+'\\\\n'`` is necessary else compile fails when code ends in a comment."
p118
sI207
S'    """'
p119
sI208
S''
sI209
S"    return compile(code.rstrip().replace('\\r\\n', '\\n') + '\\n', layer, 'exec')"
p120
sI210
S''
sI211
S''
sI212
S"def restricted(code, environment=None, layer='Unknown'):"
p121
sI213
S'    """'
p122
ssg99
S'(code=\'# -*- coding: utf-8 -*-\\n# intente algo como\\ndef ..."-")\\n\\n\\n\\n\\nresponse._vars=response._caller(cargar)\\n\', layer=r\'F:\\Informatorio\\web2py\\applications\\BC\\controllers/HomeController.py\')'
p123
sg101
S'compile2'
p124
sasS'pyver'
p125
S'Python 2.7.9: F:\\Informatorio\\web2py\\web2py.exe (prefix: C:\\Python27)'
p126
sS'session'
p127
g69
(S's\xa3\x00\x00\x00<div><table><tr><td style="font-weight:bold;vertical-align:top;">invitado</td><td style="vertical-align:top;">:</td><td><div>Invitado</div></td></tr></table></div>'
tRp128
sS'etype'
p129
S"<type 'exceptions.SyntaxError'>"
p130
sS'date'
p131
S'Sun Jul 10 18:55:38 2016'
p132
sS'response'
p133
g69
(S's\x82?\x00\x00<div><table><tr><td style="font-weight:bold;vertical-align:top;">body</td><td style="vertical-align:top;">:</td><td><div>&lt;cStringIO.StringO object at 0x03E74580&gt;</div></td></tr><tr><td style="font-weight:bold;vertical-align:top;">cookies</td><td style="vertical-align:top;">:</td><td><div><table><tr><td style="font-weight:bold;vertical-align:top;">session_id_bc</td><td style="vertical-align:top;">:</td><td><div>127.0.0.1-6dab64d9-e554-40c7-9bcd-d6a0a02ce5f8<table><tr><td style="font-weight:bold;vertical-align:top;">comment</td><td style="vertical-align:top;">:</td><td><div></div></td></tr><tr><td style="font-weight:bold;vertical-align:top;">domain</td><td style="vertical-align:top;">:</td><td><div></div></td></tr><tr><td style="font-weight:bold;vertical-align:top;">expires</td><td style="vertical-align:top;">:</td><td><div></div></td></tr><tr><td style="font-weight:bold;vertical-align:top;">httponly</td><td style="vertical-align:top;">:</td><td><div></div></td></tr><tr><td style="font-weight:bold;vertical-align:top;">max-age</td><td style="vertical-align:top;">:</td><td><div></div></td></tr><tr><td style="font-weight:bold;vertical-align:top;">path</td><td style="vertical-align:top;">:</td><td><div>/</div></td></tr><tr><td style="font-weight:bold;vertical-align:top;">secure</td><td style="vertical-align:top;">:</td><td><div></div></td></tr><tr><td style="font-weight:bold;vertical-align:top;">version</td><td style="vertical-align:top;">:</td><td><div></div></td></tr></table></div></td></tr></table></div></td></tr><tr><td style="font-weight:bold;vertical-align:top;">delimiters</td><td style="vertical-align:top;">:</td><td><div><table><tr><td><div>{{</div></td></tr><tr><td><div>}}</div></td></tr></table></div></td></tr><tr><td style="font-weight:bold;vertical-align:top;">files</td><td style="vertical-align:top;">:</td><td><div><table></table></div></td></tr><tr><td style="font-weight:bold;vertical-align:top;">flash</td><td style="vertical-align:top;">:</td><td><div></div></td></tr><tr><td style="font-weight:bold;vertical-align:top;">form_label_separator</td><td style="vertical-align:top;">:</td><td><div></div></td></tr><tr><td style="font-weight:bold;vertical-align:top;">formstyle</td><td style="vertical-align:top;">:</td><td><div>bootstrap3_inline</div></td></tr><tr><td style="font-weight:bold;vertical-align:top;">generic_patterns</td><td style="vertical-align:top;">:</td><td><div><table><tr><td><div>*</div></td></tr></table></div></td></tr><tr><td style="font-weight:bold;vertical-align:top;">google_analytics_id</td><td style="vertical-align:top;">:</td><td><div>None</div></td></tr><tr><td style="font-weight:bold;vertical-align:top;">headers</td><td style="vertical-align:top;">:</td><td><div><table><tr><td style="font-weight:bold;vertical-align:top;">X-Powered-By</td><td style="vertical-align:top;">:</td><td><div>web2py</div></td></tr></table></div></td></tr><tr><td style="font-weight:bold;vertical-align:top;">logo</td><td style="vertical-align:top;">:</td><td><div><a class="navbar-brand" href="http://www.web2py.com/" id="web2py-logo"><b>web<span>2</span>py</b>&trade;&nbsp;</a></div></td></tr><tr><td style="font-weight:bold;vertical-align:top;">menu</td><td style="vertical-align:top;">:</td><td><div><table><tr><td><div><table><tr><td><div>Inicio</div></td></tr><tr><td><div>False</div></td></tr><tr><td><div>/BC/default/index</div></td></tr><tr><td><div><table></table></div></td></tr></table></div></td></tr><tr><td><div><table><tr><td><div>Mis Sitios</div></td></tr><tr><td><div>False</div></td></tr><tr><td><div>/admin/default/site</div></td></tr></table></div></td></tr><tr><td><div><table><tr><td><div>Esta Aplicaci\xc3\xb3n</div></td></tr><tr><td><div>False</div></td></tr><tr><td><div>#</div></td></tr><tr><td><div><table><tr><td><div><table><tr><td><div>Design</div></td></tr><tr><td><div>False</div></td></tr><tr><td><div>/admin/default/design/BC</div></td></tr></table></div></td></tr><tr><td><div><li class="divider"></li></div></td></tr><tr><td><div><table><tr><td><div>Controlador</div></td></tr><tr><td><div>False</div></td></tr><tr><td><div>/admin/default/edit/BC/controllers/HomeController.py</div></td></tr></table></div></td></tr><tr><td><div><table><tr><td><div>Vista</div></td></tr><tr><td><div>False</div></td></tr><tr><td><div>/admin/default/edit/BC/views/HomeController/cargar.html</div></td></tr></table></div></td></tr><tr><td><div><table><tr><td><div>Modelo BDD</div></td></tr><tr><td><div>False</div></td></tr><tr><td><div>/admin/default/edit/BC/models/db.py</div></td></tr></table></div></td></tr><tr><td><div><table><tr><td><div>Modelo "menu"</div></td></tr><tr><td><div>False</div></td></tr><tr><td><div>/admin/default/edit/BC/models/menu.py</div></td></tr></table></div></td></tr><tr><td><div><table><tr><td><div>Config.ini</div></td></tr><tr><td><div>False</div></td></tr><tr><td><div>/admin/default/edit/BC/private/appconfig.ini</div></td></tr></table></div></td></tr><tr><td><div><table><tr><td><div>Dise\xc3\xb1o de p\xc3\xa1gina</div></td></tr><tr><td><div>False</div></td></tr><tr><td><div>/admin/default/edit/BC/views/layout.html</div></td></tr></table></div></td></tr><tr><td><div><table><tr><td><div>Hoja de estilo</div></td></tr><tr><td><div>False</div></td></tr><tr><td><div>/admin/default/edit/BC/static/css/web2py-bootstrap3.css</div></td></tr></table></div></td></tr><tr><td><div><table><tr><td><div>Base de datos</div></td></tr><tr><td><div>False</div></td></tr><tr><td><div>/BC/appadmin/index</div></td></tr></table></div></td></tr><tr><td><div><table><tr><td><div>Errores</div></td></tr><tr><td><div>False</div></td></tr><tr><td><div>/admin/default/errors/BC</div></td></tr></table></div></td></tr><tr><td><div><table><tr><td><div>Acerca de</div></td></tr><tr><td><div>False</div></td></tr><tr><td><div>/admin/default/about/BC</div></td></tr></table></div></td></tr></table></div></td></tr></table></div></td></tr><tr><td><div><table><tr><td><div>web2py.com</div></td></tr><tr><td><div>False</div></td></tr><tr><td><div>#</div></td></tr><tr><td><div><table><tr><td><div><table><tr><td><div>Descargas</div></td></tr><tr><td><div>False</div></td></tr><tr><td><div>http://www.web2py.com/examples/default/download</div></td></tr></table></div></td></tr><tr><td><div><table><tr><td><div>Soporte</div></td></tr><tr><td><div>False</div></td></tr><tr><td><div>http://www.web2py.com/examples/default/support</div></td></tr></table></div></td></tr><tr><td><div><table><tr><td><div>Demostraci\xc3\xb3n</div></td></tr><tr><td><div>False</div></td></tr><tr><td><div>http://web2py.com/demo_admin</div></td></tr></table></div></td></tr><tr><td><div><table><tr><td><div>Ejemplos R\xc3\xa1pidos</div></td></tr><tr><td><div>False</div></td></tr><tr><td><div>http://web2py.com/examples/default/examples</div></td></tr></table></div></td></tr><tr><td><div><table><tr><td><div>FAQ</div></td></tr><tr><td><div>False</div></td></tr><tr><td><div>http://web2py.com/AlterEgo</div></td></tr></table></div></td></tr><tr><td><div><table><tr><td><div>V\xc3\xaddeos</div></td></tr><tr><td><div>False</div></td></tr><tr><td><div>http://www.web2py.com/examples/default/videos/</div></td></tr></table></div></td></tr><tr><td><div><table><tr><td><div>Aplicaciones Libres</div></td></tr><tr><td><div>False</div></td></tr><tr><td><div>http://web2py.com/appliances</div></td></tr></table></div></td></tr><tr><td><div><table><tr><td><div>Plugins</div></td></tr><tr><td><div>False</div></td></tr><tr><td><div>http://web2py.com/plugins</div></td></tr></table></div></td></tr><tr><td><div><table><tr><td><div>Recetas</div></td></tr><tr><td><div>False</div></td></tr><tr><td><div>http://web2pyslices.com/</div></td></tr></table></div></td></tr></table></div></td></tr></table></div></td></tr><tr><td><div><table><tr><td><div>Documentaci\xc3\xb3n</div></td></tr><tr><td><div>False</div></td></tr><tr><td><div>#</div></td></tr><tr><td><div><table><tr><td><div><table><tr><td><div>Online book</div></td></tr><tr><td><div>False</div></td></tr><tr><td><div>http://www.web2py.com/book</div></td></tr></table></div></td></tr><tr><td><div><li class="divider"></li></div></td></tr><tr><td><div><table><tr><td><div>Prefacio</div></td></tr><tr><td><div>False</div></td></tr><tr><td><div>http://www.web2py.com/book/default/chapter/00</div></td></tr></table></div></td></tr><tr><td><div><table><tr><td><div>Introducci\xc3\xb3n</div></td></tr><tr><td><div>False</div></td></tr><tr><td><div>http://www.web2py.com/book/default/chapter/01</div></td></tr></table></div></td></tr><tr><td><div><table><tr><td><div>Python</div></td></tr><tr><td><div>False</div></td></tr><tr><td><div>http://www.web2py.com/book/default/chapter/02</div></td></tr></table></div></td></tr><tr><td><div><table><tr><td><div>Resumen</div></td></tr><tr><td><div>False</div></td></tr><tr><td><div>http://www.web2py.com/book/default/chapter/03</div></td></tr></table></div></td></tr><tr><td><div><table><tr><td><div>El N\xc3\xbacleo</div></td></tr><tr><td><div>False</div></td></tr><tr><td><div>http://www.web2py.com/book/default/chapter/04</div></td></tr></table></div></td></tr><tr><td><div><table><tr><td><div>Las Vistas</div></td></tr><tr><td><div>False</div></td></tr><tr><td><div>http://www.web2py.com/book/default/chapter/05</div></td></tr></table></div></td></tr><tr><td><div><table><tr><td><div>Base de datos</div></td></tr><tr><td><div>False</div></td></tr><tr><td><div>http://www.web2py.com/book/default/chapter/06</div></td></tr></table></div></td></tr><tr><td><div><table><tr><td><div>Formularios y validadores</div></td></tr><tr><td><div>False</div></td></tr><tr><td><div>http://www.web2py.com/book/default/chapter/07</div></td></tr></table></div></td></tr><tr><td><div><table><tr><td><div>Correo electr\xc3\xb3nico y SMS</div></td></tr><tr><td><div>False</div></td></tr><tr><td><div>http://www.web2py.com/book/default/chapter/08</div></td></tr></table></div></td></tr><tr><td><div><table><tr><td><div>Control de Acceso</div></td></tr><tr><td><div>False</div></td></tr><tr><td><div>http://www.web2py.com/book/default/chapter/09</div></td></tr></table></div></td></tr><tr><td><div><table><tr><td><div>Servicios</div></td></tr><tr><td><div>False</div></td></tr><tr><td><div>http://www.web2py.com/book/default/chapter/10</div></td></tr></table></div></td></tr><tr><td><div><table><tr><td><div>Recetas AJAX</div></td></tr><tr><td><div>False</div></td></tr><tr><td><div>http://www.web2py.com/book/default/chapter/11</div></td></tr></table></div></td></tr><tr><td><div><table><tr><td><div>Componentes y Plugins</div></td></tr><tr><td><div>False</div></td></tr><tr><td><div>http://www.web2py.com/book/default/chapter/12</div></td></tr></table></div></td></tr><tr><td><div><table><tr><td><div>Recetas de despliegue</div></td></tr><tr><td><div>False</div></td></tr><tr><td><div>http://www.web2py.com/book/default/chapter/13</div></td></tr></table></div></td></tr><tr><td><div><table><tr><td><div>Otras Recetas</div></td></tr><tr><td><div>False</div></td></tr><tr><td><div>http://www.web2py.com/book/default/chapter/14</div></td></tr></table></div></td></tr><tr><td><div><table><tr><td><div>Helping web2py</div></td></tr><tr><td><div>False</div></td></tr><tr><td><div>http://www.web2py.com/book/default/chapter/15</div></td></tr></table></div></td></tr><tr><td><div><table><tr><td><div>Buy web2py\'s book</div></td></tr><tr><td><div>False</div></td></tr><tr><td><div>http://stores.lulu.com/web2py</div></td></tr></table></div></td></tr></table></div></td></tr></table></div></td></tr><tr><td><div><table><tr><td><div>Comunidad</div></td></tr><tr><td><div>False</div></td></tr><tr><td><div>None</div></td></tr><tr><td><div><table><tr><td><div><table><tr><td><div>Grupos</div></td></tr><tr><td><div>False</div></td></tr><tr><td><div>http://www.web2py.com/examples/default/usergroups</div></td></tr></table></div></td></tr><tr><td><div><table><tr><td><div>Twitter</div></td></tr><tr><td><div>False</div></td></tr><tr><td><div>http://twitter.com/web2py</div></td></tr></table></div></td></tr><tr><td><div><table><tr><td><div>Chat en vivo</div></td></tr><tr><td><div>False</div></td></tr><tr><td><div>http://webchat.freenode.net/?channels=web2py</div></td></tr></table></div></td></tr></table></div></td></tr></table></div></td></tr></table></div></td></tr><tr><td style="font-weight:bold;vertical-align:top;">meta</td><td style="vertical-align:top;">:</td><td><div><table><tr><td style="font-weight:bold;vertical-align:top;">author</td><td style="vertical-align:top;">:</td><td><div>Your Name &lt;you@example.com&gt;</div></td></tr><tr><td style="font-weight:bold;vertical-align:top;">description</td><td style="vertical-align:top;">:</td><td><div>a cool new app</div></td></tr><tr><td style="font-weight:bold;vertical-align:top;">generator</td><td style="vertical-align:top;">:</td><td><div>Web2py Web Framework</div></td></tr><tr><td style="font-weight:bold;vertical-align:top;">keywords</td><td style="vertical-align:top;">:</td><td><div><table><tr><td><div>web2py</div></td></tr><tr><td><div>python</div></td></tr><tr><td><div>framework</div></td></tr></table></div></td></tr></table></div></td></tr><tr><td style="font-weight:bold;vertical-align:top;">models_to_run</td><td style="vertical-align:top;">:</td><td><div><table><tr><td><div>^\\w+\\.py$</div></td></tr><tr><td><div>^HomeController/\\w+\\.py$</div></td></tr><tr><td><div>^HomeController/cargar/\\w+\\.py$</div></td></tr></table></div></td></tr><tr><td style="font-weight:bold;vertical-align:top;">postprocessing</td><td style="vertical-align:top;">:</td><td><div><table></table></div></td></tr><tr><td style="font-weight:bold;vertical-align:top;">session_client</td><td style="vertical-align:top;">:</td><td><div>127.0.0.1</div></td></tr><tr><td style="font-weight:bold;vertical-align:top;">session_cookie_compression_level</td><td style="vertical-align:top;">:</td><td><div>None</div></td></tr><tr><td style="font-weight:bold;vertical-align:top;">session_cookie_expires</td><td style="vertical-align:top;">:</td><td><div>None</div></td></tr><tr><td style="font-weight:bold;vertical-align:top;">session_data_name</td><td style="vertical-align:top;">:</td><td><div>session_data_bc</div></td></tr><tr><td style="font-weight:bold;vertical-align:top;">session_file</td><td style="vertical-align:top;">:</td><td><div>&lt;open file &#x27;F:\\\\Informatorio\\\\web2py\\\\applications\\\\BC\\\\sessions\\\\0e0\\\\14a\\\\127.0.0.1-6dab64d9-e554-40c7-9bcd-d6a0a02ce5f8&#x27;, mode &#x27;rb+&#x27; at 0x04AA0498&gt;</div></td></tr><tr><td style="font-weight:bold;vertical-align:top;">session_filename</td><td style="vertical-align:top;">:</td><td><div>F:\\Informatorio\\web2py\\applications\\BC\\sessions\\127.0.0.1-6dab64d9-e554-40c7-9bcd-d6a0a02ce5f8</div></td></tr><tr><td style="font-weight:bold;vertical-align:top;">session_hash</td><td style="vertical-align:top;">:</td><td><div>5f28434dfde0ee1eb77dd0b86397ce05</div></td></tr><tr><td style="font-weight:bold;vertical-align:top;">session_id</td><td style="vertical-align:top;">:</td><td><div>127.0.0.1-6dab64d9-e554-40c7-9bcd-d6a0a02ce5f8</div></td></tr><tr><td style="font-weight:bold;vertical-align:top;">session_id_name</td><td style="vertical-align:top;">:</td><td><div>session_id_bc</div></td></tr><tr><td style="font-weight:bold;vertical-align:top;">session_locked</td><td style="vertical-align:top;">:</td><td><div>True</div></td></tr><tr><td style="font-weight:bold;vertical-align:top;">session_masterapp</td><td style="vertical-align:top;">:</td><td><div>BC</div></td></tr><tr><td style="font-weight:bold;vertical-align:top;">session_new</td><td style="vertical-align:top;">:</td><td><div>False</div></td></tr><tr><td style="font-weight:bold;vertical-align:top;">session_storage_type</td><td style="vertical-align:top;">:</td><td><div>file</div></td></tr><tr><td style="font-weight:bold;vertical-align:top;">status</td><td style="vertical-align:top;">:</td><td><div>200</div></td></tr><tr><td style="font-weight:bold;vertical-align:top;">subtitle</td><td style="vertical-align:top;">:</td><td><div></div></td></tr><tr><td style="font-weight:bold;vertical-align:top;">title</td><td style="vertical-align:top;">:</td><td><div>Bc</div></td></tr><tr><td style="font-weight:bold;vertical-align:top;">view</td><td style="vertical-align:top;">:</td><td><div>HomeController/cargar.html</div></td></tr></table></div>'
tRp134
sS'locals'
p135
(dp136
g4
S"r'F:\\Informatorio\\web2py\\applications\\BC\\controllers/HomeController.py'"
p137
sg6
S'\'# -*- coding: utf-8 -*-\\n# intente algo como\\ndef ..."-")\\n\\n\\n\\n\\nresponse._vars=response._caller(cargar)\\n\''
p138
sssS'traceback'
p139
S'Traceback (most recent call last):\n  File "F:\\Informatorio\\web2py\\gluon\\restricted.py", line 226, in restricted\n    ccode = compile2(code, layer)\n  File "F:\\Informatorio\\web2py\\gluon\\restricted.py", line 209, in compile2\n    return compile(code.rstrip().replace(\'\\r\\n\', \'\\n\') + \'\\n\', layer, \'exec\')\n  File "F:\\Informatorio\\web2py\\applications\\BC\\controllers/HomeController.py", line 347\n    db.escultura.insert(nombre="Principio",fecha="20-12-2011",escultor="Galicer, Jorgelina",pais="Argentina",material="Madera",imagen="EsculturasFotos\\365.JPG",direccion="Barrio Espa\xc3\xb1a - EEP N\xc2\xb0 383 "Mtra.Enriqueta Mohando de Solimano"",lat="-27.442711",lng="-59.016814",premio="-")\n                                                                                                                                                                                                            ^\nSyntaxError: invalid syntax\n'
p140
s.