(dp1
S'output'
p2
S'missing "pass" in view'
p3
sS'layer'
p4
S'ParserContainer'
p5
sS'code'
p6
S'response.write(\'<!DOCTYPE html>\\r\\n<!--[if (gt IE 9)|!(IE)]><!--> <html class="no-js" lang="\', escape=False)\nresponse.write(T.accepted_language or \'en\')\nresponse.write(\'"> <!--<![endif]-->\\r\\n  <head>\\r\\n    <meta charset="utf-8">\\r\\n    <!-- www.phpied.com/conditional-comments-block-downloads/ -->\\r\\n    <!-- Always force latest IE rendering engine\\r\\n         (even in intranet) & Chrome Frame\\r\\n         Remove this if you use the .htaccess -->\\r\\n    <meta http-equiv="X-UA-Compatible" content="IE=edge\', escape=False)\nresponse.write(not request.is_local and \',chrome=1\' or \'\')\nresponse.write(\'">\\r\\n    \\r\\n\\r\\n    <!--  Mobile Viewport Fix\\r\\n          j.mp/mobileviewport & davidbcalhoun.com/2010/viewport-metatag\\r\\n          device-width: Occupy full width of the screen in its current orientation\\r\\n          initial-scale = 1.0 retains dimensions instead of zooming out if page height > device height\\r\\n          user-scalable = yes allows the user to zoom in -->\\r\\n    <meta name="viewport" content="width=device-width, user-scalable=no, initial-scale=1.0, maximum-scale=1.0, minimum-scale=1.0">\\r\\n    <title>\', escape=False)\nresponse.write(response.title or request.application)\nresponse.write(\'</title>\\r\\n    <!-- http://dev.w3.org/html5/markup/meta.name.html -->\\r\\n    <meta name="application-name" content="\', escape=False)\nresponse.write(request.application)\nresponse.write(\'">\\r\\n    <!-- Speaking of Google, don\\\'t forget to set your site up:\\r\\n         http://google.com/webmasters -->\\r\\n    <meta name="google-site-verification" content="">\\r\\n\\r\\n   \\r\\n    <link rel="stylesheet" href="\', escape=False)\nresponse.write(URL(\'static\',\'css/bootstrap.min.css\'))\nresponse.write(\'"/>\\r\\n    <link rel="stylesheet" href="\', escape=False)\nresponse.write(URL(\'static\',\'css/web2py-bootstrap3.css\'))\nresponse.write(\'"/>\\r\\n   \\r\\n    <link rel="stylesheet" type="text/css" href="\', escape=False)\nresponse.write(URL(\'static/css\', \'animate.css\'))\nresponse.write(\'">\\r\\n      <link rel="stylesheet" href="\', escape=False)\nresponse.write(URL(\'static\',\'css/menuxs.css\'))\nresponse.write(\'"/>\\r\\n    <link rel="shortcut icon" href="\', escape=False)\nresponse.write(URL(\'static\',\'images/favicon.ico\'))\nresponse.write(\'" type="image/x-icon">\\r\\n    <link rel="stylesheet" href="\', escape=False)\nresponse.write(URL(\'static\',\'css/jquery.dataTables.css\'))\nresponse.write(\'"/>\\r\\n    \\r\\n    <link rel="apple-touch-icon" href="\', escape=False)\nresponse.write(URL(\'static\',\'images/favicon.png\'))\nresponse.write(\'">\\r\\n    <!-- All JavaScript at the bottom, except for Modernizr which enables\\r\\n         HTML5 elements & feature detects -->\\r\\n    <script src="\', escape=False)\nresponse.write(URL(\'static\',\'js/modernizr-2.8.3.min.js\'))\nresponse.write(\'"></script>\\r\\n    <link rel="stylesheet" href="\', escape=False)\nresponse.write(URL(\'static\',\'css/normalize.css\'))\nresponse.write(\'">\\r\\n    <link rel="stylesheet" type="text/css" href="\', escape=False)\nresponse.write(URL(\'static/css\', \'style.css\'))\nresponse.write(\'"> \\r\\n    \\r\\n  <!--  <link rel="stylesheet" type="text/css" href="\', escape=False)\nresponse.write(URL(\'static/css\', \'jugador.css\'))\nresponse.write(\'"> -->\\r\\n    \\r\\n    <link rel="stylesheet" type="text/css" href="\', escape=False)\nresponse.write(URL(\'static/css\', \'mapa.css\'))\nresponse.write(\'">\\r\\n\\r\\n    <link rel="stylesheet" href="\', escape=False)\nresponse.write(URL(\'static\',\'css/es-v3-9-7.css\'))\nresponse.write(\'"/>\\r\\n    \\r\\n  \\r\\n    <!--[if lt IE 9]>\\r\\n        <script src="\', escape=False)\nresponse.write(URL(\'static\',\'js/respond-1.4.2.min.js\'))\nresponse.write(\'"></script>\\r\\n        <![endif]-->\\r\\n    <!-- Favicons -->\\r\\n    \', escape=False)\nresponse.write(\'<script type="text/javascript"><!--\\r\\n    // These variables are used by the web2py_ajax_init function in web2py_ajax.js (which is loaded below).\\r\\n    var w2p_ajax_confirm_message = "\', escape=False)\nresponse.write(T(\'Are you sure you want to delete this object?\'))\nresponse.write(\'";\\r\\n    var w2p_ajax_disable_with_message = "\', escape=False)\nresponse.write(T(\'Working...\'))\nresponse.write(\'";\\r\\n    var w2p_ajax_date_format = "\', escape=False)\nresponse.write(T(\'%Y-%m-%d\'))\nresponse.write(\'";\\r\\n    var w2p_ajax_datetime_format = "\', escape=False)\nresponse.write(T(\'%Y-%m-%d %H:%M:%S\'))\nresponse.write(\'";\\r\\n    var ajax_error_500 = \\\'\', escape=False)\nresponse.write(T.M(\'An error occured, please [[reload %s]] the page\') % URL(args=request.args, vars=request.get_vars))\nresponse.write("\'\\r\\n    //--></script>\\r\\n", escape=False)\nresponse.files.insert(0,URL(\'static\',\'js/jquery.js\'))\nresponse.files.insert(1,URL(\'static\',\'css/calendar.css\'))\nresponse.files.insert(2,URL(\'static\',\'js/calendar.js\'))\nresponse.files.insert(3,URL(\'static\',\'js/web2py.js\'))\nresponse.include_meta()\nresponse.include_files()\nresponse.write(\'\\r\\n\', escape=False)\nresponse.write(\' <!-- this includes jquery.js, calendar.js/.css and web2py.js -->\\r\\n    \', escape=False)\nresponse.write(\'\\r\\n    \', escape=False)\n# using sidebars need to know what sidebar you want to use\nmc0 = \'col-md-12\'\nmc1 = \'col-md-9\'\nmc2 = \'col-md-6\'\nleft_sidebar_enabled = globals().get(\'left_sidebar_enabled\', False)\nright_sidebar_enabled = globals().get(\'right_sidebar_enabled\', False)\nmiddle_column = {0: mc0, 1: mc1, 2: mc2}[\n(left_sidebar_enabled and 1 or 0)+(right_sidebar_enabled and 1 or 0)]\nresponse.write(\'\\r\\n  </head>\\r\\n  <body>\\r\\n    <!--[if lt IE 8]><p class="browserupgrade">You are using an <strong>outdated</strong> browser. Please <a href="http://browsehappy.com/">upgrade your browser</a> to improve your experience.</p><![endif]-->\\r\\n    <div class="w2p_flash alert alert-dismissable">\', escape=False)\nresponse.write(response.flash or \'\')\nresponse.write(\'</div>\\r\\n    <!-- Navbar ======================================= -->\\r\\n    \\r\\n    <!--<nav class="navbar navbar-default navbar-fixed-top" role="navigation">\\r\\n      <div class="container-fluid">\\r\\n        <div class="navbar-header">\\r\\n          <button type="button" class="navbar-toggle" data-toggle="collapse" data-target=".navbar-collapse">\\r\\n            <span class="sr-only">Toggle navigation</span>\\r\\n            <span class="icon-bar"></span>\\r\\n            <span class="icon-bar"></span>\\r\\n            <span class="icon-bar"></span>\\r\\n          </button>\\r\\n          \', escape=False)\nresponse.write(response.logo or \'\')\nresponse.write(\'\\r\\n        </div>\\r\\n        <div class="collapse navbar-collapse navbar-ex1-collapse">\\r\\n          <ul class="nav navbar-nav navbar-right">\\r\\n            \', escape=False)\nresponse.write(\'auth\' in globals() and auth.navbar(\'Welcome\',mode=\'dropdown\') or \'\')\nresponse.write(\'\\r\\n          </ul>\\r\\n          \', escape=False)\nif response.menu:\n    response.write(\'\\r\\n          \', escape=False)\n    response.write(MENU(response.menu, _class=\'nav navbar-nav\',li_class=\'dropdown\',ul_class=\'dropdown-menu\'))\n    response.write(\'\\r\\n          \', escape=False)\n    pass\nresponse.write(\'\\r\\n        </div>\\r\\n      </div>\\r\\n    </nav>-->\\r\\n\\r\\n    <!-- Masthead ===================================== -->    \\r\\n    \', escape=False)\nresponse.write(\'\\r\\n    \', escape=False)\nresponse.write(\'\\r\\n    <!-- Main ========================================= -->\\r\\n    <!-- Begin page content -->\\r\\n    \\r\\n \', escape=False)\nif session.jugador==None:\n    response.write(\'\\r\\n\\r\\n<div id="custom-bootstrap-menu" class="navbar navbar-default navbar-fixed-top visible-xs" role="navigation">\\r\\n    <div class="container-fluid">\\r\\n        <div class="navbar-header"><a class="navbar-brand" href="#"></a>\\r\\n            <button type="button" class="navbar-toggle" data-toggle="collapse" data-target=".navbar-menubuilder"><span class="sr-only">Toggle navigation</span><span class="icon-bar"></span><span class="icon-bar"></span><span class="icon-bar"></span>\\r\\n            </button>\\r\\n        </div>\\r\\n        <div class="row">\\r\\n        <div class="col-xs-6"></div>\\r\\n        <div class="col-xs-6">\\r\\n        <div id="nose" align="right" class="collapse navbar-collapse navbar-menubuilder">\\r\\n            <ul class="nav navbar-nav navbar-right">\\r\\n                <li><a href="" >\', escape=False)\n    response.write(session.invitado)\n    response.write(\'</a>\\r\\n                </li>\\r\\n                <br>\\r\\n                <li><a href="\', escape=False)\n    response.write(URL(\'HomeController\',\'index\'))\n    response.write(\'">Menu Principal</a>\\r\\n                </li>\\r\\n                <li><a href="\', escape=False)\n    response.write(URL(\'JugadorController\',\'login\'))\n    response.write(\'">Acceder</a>\\r\\n                </li>\\r\\n                <li><a href="\', escape=False)\n    response.write(URL(\'JugadorController\',\'registro\'))\n    response.write(\'">Registro</a>\\r\\n                </li>\\r\\n                <li><a href="#">Ranking</a>\\r\\n                </li>\\r\\n            </ul>\\r\\n        </div>\\r\\n        </div>\\r\\n        </div>\\r\\n    </div>\\r\\n</div>\\r\\n\\r\\n\\r\\n \\r\\n  <div class="container-fluid">\\r\\n     \\r\\n\\r\\n      <div class="ocultar-menu hidden-xs" id="side-menu" style="right: -318px;">\\r\\n        \\r\\n        <a class="side-menu-tab" id="fake-tab" href="#">\\r\\n      \\r\\n        </a>\\r\\n        \\r\\n        <a class="side-menu-tab" id="main-tab1">\\r\\n          <div class="vertical-text"><span id="verificador-menu">Men\\xc3\\xba</span></div>\\r\\n        </a>\\r\\n       <a class="side-menu-tab" id="mas-tab">\\r\\n          <div class="vertical-text"><span id="verificador-mas">M\\xc3\\xa1s</span></div>\\r\\n        </a>\\r\\n      \\r\\n\\r\\n        <br>\\r\\n        <br>\\r\\n        <br>\\r\\n        <br>\\r\\n        <br>\\r\\n        <br>\\r\\n        <h2>\', escape=False)\n    response.write(session.invitado)\n    response.write(\'</h2>\\r\\n\\r\\n          <div id="inner-side-menu">\\r\\n              \\r\\n                <div class="side-menu-page">\\r\\n                  <div id="side-menu-title-box">\\r\\n                    <div id="side-hover-container">\\r\\n                      <canvas width="131" height="96" class="hover-icon" style="opacity: 1;"></canvas>\\r\\n                      <canvas width="131" height="96" class="hover-icon" style="opacity: 0.01;"></canvas>\\r\\n                      <canvas width="131" height="96" class="hover-icon" style="opacity: 0.01;"></canvas>\\r\\n                      <canvas width="131" height="96" class="hover-icon" style="opacity: 0.01;"></canvas>\\r\\n                      <canvas width="131" height="96" class="hover-icon" style="opacity: 0.01;"></canvas>\\r\\n                    </div>\\r\\n                    <img class="side-menu-title-line" src="\', escape=False)\n    response.write(URL(\'static/images\',\'line-red.png\'))\n    response.write(\'">\\r\\n                  </div>\\r\\n                \\r\\n                  <div class="side-menu-button" id="menuB1">\\r\\n                    <div class="button-default">\\r\\n                      <canvas width="305" height="83" style="width: 100%; height: 100%;"></canvas>\\r\\n                      <div class="side-menu-button-text" id="vmenu">Men\\xc3\\xba principal</div>\\r\\n                    </div>\\r\\n\\r\\n                    <div class="button-hover" id="menuB2">\\r\\n                      <canvas width="305" height="83" style="width: 100%; height: 100%;"></canvas>\\r\\n                      <div class="side-menu-button-text"><a href="\', escape=False)\n    response.write(URL(\'HomeController\',\'index\'))\n    response.write(\'">Men\\xc3\\xba principal</a></div>\\r\\n                    </div>\\r\\n                  </div>\\r\\n\\r\\n                   <div class="side-menu-button" id="logB1">\\r\\n                    <div class="button-default">\\r\\n                      <canvas width="305" height="83" style="width: 100%; height: 100%;"></canvas>\\r\\n                      <div class="side-menu-button-text">Login</div>\\r\\n                    </div>\\r\\n                    <div class="button-hover" id="logB2">\\r\\n                      <canvas width="305" height="83" style="width: 100%; height: 100%;"></canvas>\\r\\n                      <div class="side-menu-button-text"><a href="\', escape=False)\n    response.write(URL(\'JugadorController\',\'login\'))\n    response.write(\'">Login</a></div>\\r\\n                    </div>\\r\\n                  </div>\\r\\n\\r\\n                  <div class="side-menu-button" id="regB1">\\r\\n                    <div class="button-default">\\r\\n                      <canvas width="305" height="83" style="width: 100%; height: 100%;"></canvas>\\r\\n                      <div class="side-menu-button-text">Registrar</div>\\r\\n                    </div>\\r\\n                    <div class="button-hover" id="regB2">\\r\\n                      <canvas width="305" height="83" style="width: 100%; height: 100%;"></canvas>\\r\\n                      <div class="side-menu-button-text"><a href="\', escape=False)\n    response.write(URL(\'JugadorController\',\'registro\'))\n    response.write(\'">Registrar</a></div>\\r\\n                    </div>\\r\\n                  </div>\\r\\n                                  \\r\\n\\r\\n                  <div class="side-menu-button" id="rankingB">\\r\\n                    <div class="button-default">\\r\\n                      <canvas width="305" height="83" style="width: 100%; height: 100%;"></canvas>\\r\\n                      <div class="side-menu-button-text">Ranking</div>\\r\\n                    </div>\\r\\n                    \\r\\n                  </div>\\r\\n                \\r\\n                <div class="side-menu-button hidden" id="sugB1">\\r\\n                    <div class="button-default">\\r\\n                      <canvas width="305" height="83" style="width: 100%; height: 100%;"></canvas>\\r\\n                      <div class="side-menu-button-text" id="vmenu">Sugerinos!</div>\\r\\n                    </div>\\r\\n\\r\\n                    <div class="button-hover hidden" id="sugB2">\\r\\n                      <canvas width="305" height="83" style="width: 100%; height: 100%;"></canvas>\\r\\n                      <div class="side-menu-button-text"><a href="#">Sugerinos!</a></div>\\r\\n                    </div>\\r\\n                  </div>               \\r\\n                <div class="side-menu-button hidden" id="valorB1">\\r\\n                    <div class="button-default">\\r\\n                      <canvas width="305" height="83" style="width: 100%; height: 100%;"></canvas>\\r\\n                      <div class="side-menu-button-text" id="vmenu">Votaciones</div>\\r\\n                    </div>\\r\\n\\r\\n                    <div class="button-hover hidden" id="valorB2">\\r\\n                      <canvas width="305" height="83" style="width: 100%; height: 100%;"></canvas>\\r\\n                      <div class="side-menu-button-text"><a href="#">Votaciones</a></div>\\r\\n                    </div>\\r\\n                  </div>\\r\\n                \\r\\n                  <div class="side-menu-button hidden" id="recomend1">\\r\\n                    <div class="button-default">\\r\\n                      <canvas width="305" height="83" style="width: 100%; height: 100%;"></canvas>\\r\\n                      <div class="side-menu-button-text" id="vmenu">Recomendados</div>\\r\\n                    </div>\\r\\n\\r\\n                    <div class="button-hover hidden" id="recomend2">\\r\\n                      <canvas width="305" height="83" style="width: 100%; height: 100%;"></canvas>\\r\\n                      <div class="side-menu-button-text"><a href="\', escape=False)\n    response.write(URL(\'RecomendadoController\',\'index\'))\n    response.write(\'">Recomendados</a></div>\\r\\n                    </div>\\r\\n                  </div>\\r\\n\\r\\n                  <div class="side-menu-button hidden" id="nosotrosB1">\\r\\n                    <div class="button-default">\\r\\n                      <canvas width="305" height="83" style="width: 100%; height: 100%;"></canvas>\\r\\n                      <div class="side-menu-button-text" id="vmenu">Acerca de...</div>\\r\\n                    </div>\\r\\n\\r\\n                    <div class="button-hover hidden" id="nosotrosB2">\\r\\n                      <canvas width="305" height="83" style="width: 100%; height: 100%;"></canvas>\\r\\n                      <div class="side-menu-button-text"><a href="\', escape=False)\n    response.write(URL(\'ContactoController\',\'index\'))\n    response.write(\'">Acerca de...</a></div>\\r\\n                    </div>\\r\\n                  </div>\\r\\n\\r\\n\\r\\n              </div>\\r\\n          </div>\\r\\n      </div>\\r\\n  \\r\\n\\r\\n      \', escape=False)\nelse:\n    response.write(\'\\r\\n\\r\\n      <div id="custom-bootstrap-menu" class="navbar navbar-default navbar-fixed-top visible-xs" role="navigation">\\r\\n    <div class="container-fluid">\\r\\n        <div class="navbar-header"><a class="navbar-brand" href="#"></a>\\r\\n            <button type="button" class="navbar-toggle" data-toggle="collapse" data-target=".navbar-menubuilder"><span class="sr-only">Toggle navigation</span><span class="icon-bar"></span><span class="icon-bar"></span><span class="icon-bar"></span>\\r\\n            </button>\\r\\n        </div>\\r\\n        <div class="row">\\r\\n        <div class="col-xs-6"></div>\\r\\n        <div class="col-xs-6">\\r\\n        <div id="nose" align="right" class="collapse navbar-collapse navbar-menubuilder">\\r\\n            <ul class="nav navbar-nav navbar-right">\\r\\n                <li><a href="" >\', escape=False)\n    response.write(session.jugador)\n    response.write(\'</a>\\r\\n                </li>\\r\\n                <br>\\r\\n                <li><a href="\', escape=False)\n    response.write(URL(\'HomeController\',\'index\'))\n    response.write(\'">Menu Principal</a>\\r\\n                </li>\\r\\n                <li><a href="#">Perfil</a>\\r\\n                </li>\\r\\n                <li><a href="#">Ranking</a>\\r\\n                </li>\\r\\n                <li><a href="\', escape=False)\n    response.write(URL(\'JugadorController\',\'cerrar\'))\n    response.write(\'">Salir</a>\\r\\n                </li>\\r\\n            </ul>\\r\\n        </div>\\r\\n        </div>\\r\\n        </div>\\r\\n    </div>\\r\\n</div>\\r\\n\\r\\n\\r\\n      <div class="container-fluid">\\r\\n     \\r\\n\\r\\n      <div class="ocultar-menu hidden-xs" id="side-menu" style="right: -314px;">\\r\\n        \\r\\n        <a class="side-menu-tab" id="fake-tab" href="#">\\r\\n      \\r\\n        </a>\\r\\n        \\r\\n          <a class="side-menu-tab" id="main-tab1">\\r\\n          <div class="vertical-text"><span id="verificador-menu">Men\\xc3\\xba</span></div>\\r\\n        </a>\\r\\n       <a class="side-menu-tab" id="mas-tab">\\r\\n          <div class="vertical-text"><span id="verificador-mas">M\\xc3\\xa1s</span></div>\\r\\n        </a>\\r\\n      \\r\\n          \\r\\n\\r\\n        <br>\\r\\n        <br>\\r\\n        <br>\\r\\n        <br>\\r\\n        <br>\\r\\n        <br>\\r\\n        <h2>\', escape=False)\n    response.write(session.jugador)\n    response.write(\'</h2>\\r\\n        \\r\\n\\r\\n          <div id="inner-side-menu">\\r\\n              \\r\\n                <div class="side-menu-page">\\r\\n                  <div id="side-menu-title-box">\\r\\n\\r\\n                    <div id="side-hover-container">\\r\\n                      <canvas width="131" height="96" class="hover-icon" style="opacity: 1;"></canvas>\\r\\n                      <canvas width="131" height="96" class="hover-icon" style="opacity: 0.01;"></canvas>\\r\\n                      <canvas width="131" height="96" class="hover-icon" style="opacity: 0.01;"></canvas>\\r\\n                      <canvas width="131" height="96" class="hover-icon" style="opacity: 0.01;"></canvas>\\r\\n                      <canvas width="131" height="96" class="hover-icon" style="opacity: 0.01;"></canvas>\\r\\n                    </div>\\r\\n\\r\\n                    <img class="side-menu-title-line" src="\', escape=False)\n    response.write(URL(\'static/images\',\'line-red.png\'))\n    response.write(\'">\\r\\n                  </div>\\r\\n                \\r\\n                  <div class="side-menu-button" id="menuB1">\\r\\n                    <div class="button-default">\\r\\n                      <canvas width="305" height="83" style="width: 100%; height: 100%;"></canvas>\\r\\n                      <div class="side-menu-button-text">Men\\xc3\\xba principal</div>\\r\\n                    </div>\\r\\n\\r\\n                    <div class="button-hover" id="menuB2">\\r\\n                      <canvas width="305" height="83" style="width: 100%; height: 100%;"></canvas>\\r\\n                      <div class="side-menu-button-text"><a href="\', escape=False)\n    response.write(URL("HomeController","index"))\n    response.write(\'">Men\\xc3\\xba principal</a></div>\\r\\n                    </div>\\r\\n                  </div>\\r\\n\\r\\n                   <div class="side-menu-button" id="logB1">\\r\\n                    <div class="button-default">\\r\\n                      <canvas width="305" height="83" style="width: 100%; height: 100%;"></canvas>\\r\\n                      <div class="side-menu-button-text">Perfil</div>\\r\\n                    </div>\\r\\n                    <div class="button-hover" id="logB2">\\r\\n                      <canvas width="305" height="83" style="width: 100%; height: 100%;"></canvas>\\r\\n                      <div class="side-menu-button-text"><a href="#">Perfil</a></div>\\r\\n                    </div>\\r\\n                  </div>\\r\\n\\r\\n                  <div class="side-menu-button" id="regB1">\\r\\n                    <div class="button-default">\\r\\n                      <canvas width="305" height="83" style="width: 100%; height: 100%;"></canvas>\\r\\n                      <div class="side-menu-button-text">Ranking</div>\\r\\n                    </div>\\r\\n                    <div class="button-hover" id="regB2">\\r\\n                      <canvas width="305" height="83" style="width: 100%; height: 100%;"></canvas>\\r\\n                      <div class="side-menu-button-text"><a href="#">Ranking</a></div>\\r\\n                    </div>\\r\\n                  </div>\\r\\n                                  \\r\\n\\r\\n                  <div class="side-menu-button" id="rankingB">\\r\\n                    <div class="button-default">\\r\\n                      <canvas width="305" height="83" style="width: 100%; height: 100%;"></canvas>\\r\\n                      <div class="side-menu-button-text"><a href="\', escape=False)\n    response.write(URL(\'JugadorController\',\'cerrar\'))\n    response.write(\'">Cerrar Session</a></div>\\r\\n                    </div>\\r\\n                    </div>\\r\\n                    \\r\\n                      <div class="side-menu-button hidden" id="sugB1">\\r\\n                    <div class="button-default">\\r\\n                      <canvas width="305" height="83" style="width: 100%; height: 100%;"></canvas>\\r\\n                      <div class="side-menu-button-text" id="vmenu">Sugerinos!</div>\\r\\n                    </div>\\r\\n\\r\\n                    <div class="button-hover hidden" id="sugB2">\\r\\n                      <canvas width="305" height="83" style="width: 100%; height: 100%;"></canvas>\\r\\n                      <div class="side-menu-button-text"><a href="#">Sugerinos!</a></div>\\r\\n                    </div>\\r\\n                  </div>               \\r\\n                <div class="side-menu-button hidden" id="valorB1">\\r\\n                    <div class="button-default">\\r\\n                      <canvas width="305" height="83" style="width: 100%; height: 100%;"></canvas>\\r\\n                      <div class="side-menu-button-text" id="vmenu">Votaciones</div>\\r\\n                    </div>\\r\\n\\r\\n                    <div class="button-hover hidden" id="valorB2">\\r\\n                      <canvas width="305" height="83" style="width: 100%; height: 100%;"></canvas>\\r\\n                      <div class="side-menu-button-text"><a href="#}">Votaciones</a></div>\\r\\n                    </div>\\r\\n                  </div>\\r\\n                \\r\\n                  <div class="side-menu-button hidden" id="recomend1">\\r\\n                    <div class="button-default">\\r\\n                      <canvas width="305" height="83" style="width: 100%; height: 100%;"></canvas>\\r\\n                      <div class="side-menu-button-text" id="vmenu">Recomendados</div>\\r\\n                    </div>\\r\\n\\r\\n                    <div class="button-hover hidden" id="recomend2">\\r\\n                      <canvas width="305" height="83" style="width: 100%; height: 100%;"></canvas>\\r\\n                      <div class="side-menu-button-text"><a href="\', escape=False)\n    response.write(URL(\'RecomendadoController\',\'index\'))\n    response.write(\'">Recomendados</a></div>\\r\\n                    </div>\\r\\n                  </div>\\r\\n\\r\\n                  <div class="side-menu-button hidden" id="nosotrosB1">\\r\\n                    <div class="button-default">\\r\\n                      <canvas width="305" height="83" style="width: 100%; height: 100%;"></canvas>\\r\\n                      <div class="side-menu-button-text" id="vmenu">Acerca de...</div>\\r\\n                    </div>\\r\\n\\r\\n                    <div class="button-hover hidden" id="nosotrosB2">\\r\\n                      <canvas width="305" height="83" style="width: 100%; height: 100%;"></canvas>\\r\\n                      <div class="side-menu-button-text"><a href="\', escape=False)\n    response.write(URL(\'ContactoController\',\'index\'))\n    response.write(\'">Acerca de...</a></div>\\r\\n                    </div>\\r\\n                    </div>\\r\\n                  \\r\\n              </div>\\r\\n          </div>\\r\\n      </div>\\r\\n\\r\\n      \', escape=False)\n    pass\nresponse.write(\'\\r\\n\\r\\n    <!--  \', escape=False)\nif left_sidebar_enabled:\n    response.write(\'\\r\\n        <div class="col-md-3 left-sidebar">\\r\\n            \', escape=False)\n    response.write(\'\\r\\n            <h3>Left Sidebar</h3>\\r\\n            <p></p>\\r\\n            \', escape=False)\n    response.write(\'\\r\\n        </div>\\r\\n      \', escape=False)\n    pass\nresponse.write(\'-->\\r\\n\\r\\n     \\r\\n        \', escape=False)\nresponse.write(\'\\r\\n        \', escape=False)\nresponse.write(\'\\r\\n\\r\\n\', escape=False)\ncont=0\nresponse.write(\'\\r\\n<div class="container">\\r\\n\\t  \\r\\n\\t<center><h1>RANKING GLOBAL</h1></center>\\r\\n\\t<div class="row">\\r\\n\\t\\t<div class="col-md-6 col-md-offset-3">\\r\\n\\t\\t\\t<ul class="nav nav-pills">\\r\\n\\t    \\t\\t<li class="active"><a data-toggle="pill" href="#home">Ranking Preguntas</a></li>\\r\\n\\t   \\t\\t \\t<li><a data-toggle="pill" href="#menu2">Ranking Memoria</a></li>\\r\\n \\t\\t\\t</ul>\\r\\n\\t\\t</div>\\r\\n\\t</div>\\r\\n\\t\\r\\n\\t<br>\\r\\n\\r\\n\\t<div class="tab-content">\\r\\n\\r\\n\\t\\t<div id="home" class="tab-pane fade in active">\\r\\n\\t\\t\\t<div class="row">\\r\\n\\t\\t\\t\\t\\t<div class="col-md-6 col-md-offset-3">\\r\\n\\t\\t\\t\\t\\t\\t\\r\\n\\t\\t\\t\\t\\t\\t\\t<table id="ranking" class="table table-striped table-hover "> \\r\\n\\t\\t\\t\\t\\t\\t\\t\\t\\r\\n\\t\\t\\t\\t\\t\\t\\t\\t<thead>\\r\\n\\t\\t\\t\\t\\t\\t\\t\\t  <tr>\\r\\n\\t\\t\\t\\t\\t\\t\\t\\t    <th>POSICION</th>\\r\\n\\t\\t\\t\\t\\t\\t\\t\\t    <th>NOMBRE</th>\\r\\n\\t\\t\\t\\t\\t\\t\\t\\t    <th>PUNTAJE</th>\\r\\n\\t\\t\\t\\t\\t\\t\\t\\t    <th>TIEMPO</th>\\r\\n\\t\\t\\t\\t\\t\\t\\t\\t  </tr>\\r\\n\\t\\t\\t\\t\\t\\t\\t\\t</thead>\\r\\n\\r\\n\\t\\t\\t\\t\\t\\t\\t\\t<tbody>\\r\\n\\t\\t\\t\\t\\t\\t\\t\\t\\t\', escape=False)\nfor preg in preguntas:\n    cont= cont + 1\n    response.write(\'\\r\\n\\t\\t\\t\\t\\t\\t\\t\\t\\t<tr>\\r\\n\\t\\t\\t\\t\\t\\t\\t\\t\\t\\t<td>\', escape=False)\n    response.write(cont)\n    response.write(\'</td>\\r\\n\\t\\t\\t\\t\\t\\t\\t\\t     \\t<td>\', escape=False)\n    response.write(preg[0])\n    response.write(\'</td>\\r\\n\\t\\t\\t\\t\\t\\t\\t\\t     \\t<td>\', escape=False)\n    response.write(preg[1])\n    response.write(\'</td>\\r\\n\\t\\t\\t\\t\\t\\t\\t\\t     \\t<td>\', escape=False)\n    response.write(preg[2])\n    response.write(\'</td>\\r\\n\\t\\t\\t\\t\\t\\t\\t\\t   \\t\\t\', escape=False)\n    pass\nresponse.write(\'\\r\\n\\t\\t\\t\\t\\t\\t\\t\\t   \\t</tr>\\r\\n\\t\\t\\t\\t\\t\\t\\t\\t</tbody>\\r\\n\\t\\t\\t\\t\\t\\t  \\t\\r\\n\\t\\t\\t\\t\\t\\t\\t</table>\\r\\n\\t\\t\\t\\t\\t   \\r\\n\\t\\t\\t\\t\\t</div>\\r\\n\\t\\t\\t</div>\\r\\n\\t\\t</div>\\r\\n\\r\\n\\t\\t<div id="menu2" class="tab-pane fade">\\r\\n   \\t\\t\\t<div class="row">\\r\\n\\t\\t\\t\\t\\t<div class="col-md-6 col-md-offset-3">\\r\\n\\t\\t\\t\\t\\t\\t\\r\\n\\t\\t\\t\\t\\t\\t\\t<table id="ranking" class="table table-striped table-hover "> \\r\\n\\t\\t\\t\\t\\t\\t\\t\\t\\r\\n\\t\\t\\t\\t\\t\\t\\t\\t<thead>\\r\\n\\t\\t\\t\\t\\t\\t\\t\\t  <tr>\\r\\n\\t\\t\\t\\t\\t\\t\\t\\t    <th>POSICION</th>\\r\\n\\t\\t\\t\\t\\t\\t\\t\\t    <th>NOMBRE</th>\\r\\n\\t\\t\\t\\t\\t\\t\\t\\t    <th>PUNTAJE</th>\\t\\t\\t\\t\\t\\t\\t\\t    \\r\\n\\t\\t\\t\\t\\t\\t\\t\\t  </tr>\\r\\n\\t\\t\\t\\t\\t\\t\\t\\t</thead>\\r\\n\\r\\n\\t\\t\\t\\t\\t\\t\\t\\t<tbody>\\r\\n\\t\\t\\t\\t\\t\\t\\t\\t\\t\', escape=False)\nfor memoria in memorias:\n    cont= cont + 1\n    response.write(\'\\r\\n\\t\\t\\t\\t\\t\\t\\t\\t\\t<tr>\\r\\n\\t\\t\\t\\t\\t\\t\\t\\t\\t\\t<td>\', escape=False)\n    response.write(cont)\n    response.write(\'</td>\\r\\n\\t\\t\\t\\t\\t\\t\\t\\t     \\t<td>\', escape=False)\n    response.write(memoria[0])\n    response.write(\'</td>\\r\\n\\t\\t\\t\\t\\t\\t\\t\\t     \\t<td>\', escape=False)\n    response.write(memoria[1])\n    response.write(\'</td>\\t\\t\\t\\t\\t\\t\\t\\t     \\t\\r\\n\\t\\t\\t\\t\\t\\t\\t\\t   \\t\\r\\n\\t\\t\\t\\t\\t\\t\\t\\t   \\t</tr>\\r\\n\\t\\t\\t\\t\\t\\t\\t\\t</tbody>\\r\\n\\t\\t\\t\\t\\t\\t  \\t\\r\\n\\t\\t\\t\\t\\t\\t\\t</table>\\r\\n\\t\\t\\t\\t\\t   \\r\\n\\t\\t\\t\\t\\t</div>\\r\\n\\t\\t\\t</div>\\r\\n  \\t\\t</div>\\r\\n\\r\\n\\t</div>\\r\\n\\t\\t\\t  \\r\\n</div>\\r\\n\', escape=False)\n    response.write(\'\\r\\n        \', escape=False)\n    response.write(\'\\r\\n     \\r\\n\\r\\n      <!--\', escape=False)\n    if right_sidebar_enabled:\n        response.write(\'\\r\\n        <div class="col-md-3">\\r\\n            \', escape=False)\n        response.write(\'\\r\\n            <h3>Right Sidebar</h3>\\r\\n            <p></p>\\r\\n            \', escape=False)\n        response.write(\'\\r\\n        </div>\\r\\n      \', escape=False)\n        pass\n    response.write(\'-->\\r\\n\\r\\n   </div>  \\r\\n\\r\\n    \', escape=False)\n    response.write(\' <!-- this is default footer -->      \\r\\n   \\r\\n   <!-- <footer class="footer">\\r\\n      <div class="container-fluid">\\r\\n        <div class="copyright pull-left">\', escape=False)\n    response.write(T(\'Copyright\'))\n    response.write(\' &#169; \', escape=False)\n    response.write(request.now.year)\n    response.write(\'</div>\\r\\n          <div id="poweredBy" class="pull-right">\\r\\n            \', escape=False)\n    response.write(T(\'Powered by\'))\n    response.write(\'\\r\\n            <a href="http://www.web2py.com/">web2py</a>\\r\\n          </div>\\r\\n      </div>\\r\\n    </footer>-->\\r\\n    \', escape=False)\n    response.write(\'\\r\\n    <!-- The javascript =============================== -->\\r\\n    \\r\\n    <script src="\', escape=False)\n    response.write(URL(\'static\',\'js/bootstrap.min.js\'))\n    response.write(\'"></script>\\r\\n    <script src="\', escape=False)\n    response.write(URL(\'static\',\'js/web2py-bootstrap3.js\'))\n    response.write(\'"></script>\\r\\n    <script src="\', escape=False)\n    response.write(URL(\'static\',\'js/jquery.dataTables.js\'))\n    response.write(\'"></script> \\r\\n    <script src="\', escape=False)\n    response.write(URL(\'static\',\'js/raphael-min.js\'))\n    response.write(\'"></script>\\r\\n    <script src="\', escape=False)\n    response.write(URL(\'static\',\'js/jugador.js\'))\n    response.write(\'"></script>\\r\\n    <script src="\', escape=False)\n    response.write(URL(\'static\',\'js/functions.js\'))\n    response.write(\'"></script>\\r\\n    <script src="\', escape=False)\n    response.write(URL(\'static\',\'js/mapa.js\'))\n    response.write(\'">\\r\\n\\r\\n\\r\\n    \\r\\n\\r\\n    \', escape=False)\n    response.write(\'\\r\\n    \', escape=False)\n    if response.google_analytics_id:\n        response.write(\'\\r\\n    <!-- Analytics ==================================== -->\\r\\n    <script src="\', escape=False)\n        response.write(URL(\'static\',\'js/analytics.min.js\'))\n        response.write(\'"></script>\\r\\n    \\r\\n    <script type="text/javascript">\\r\\n      analytics.initialize({\\r\\n      \\\'Google Analytics\\\':{trackingId:\\\'\', escape=False)\n        response.write(response.google_analytics_id)\n        response.write("\'}\\r\\n      });\\r\\n      \\r\\n    </script>\\r\\n    \\r\\n    ", escape=False)\n        pass\n    response.write(\'\\r\\n    <!-- Share ============================y============ -->\\r\\n    <script src="\', escape=False)\n    response.write(URL(\'static\',\'js/share.js\',vars=dict(static=URL(\'static\',\'images\'))))\n    response.write(\'"></script>\\r\\n  </body>\\r\\n</html>\\r\\n\', escape=False)'
p7
sS'snapshot'
p8
(dp9
S'exception'
p10
(dp11
S'__module__'
p12
S"'gluon.rocket'"
p13
sS'__getslice__'
p14
S"<method-wrapper '__getslice__' of SocketTimeout object>"
p15
sS'__str__'
p16
S"<method-wrapper '__str__' of SocketTimeout object>"
p17
sS'__reduce__'
p18
S'<built-in method __reduce__ of SocketTimeout object>'
p19
sS'__dict__'
p20
S'{}'
p21
sS'__sizeof__'
p22
S'<built-in method __sizeof__ of SocketTimeout object>'
p23
sS'__weakref__'
p24
S'None'
p25
sS'__init__'
p26
S"<method-wrapper '__init__' of SocketTimeout object>"
p27
sS'__setattr__'
p28
S"<method-wrapper '__setattr__' of SocketTimeout object>"
p29
sS'__reduce_ex__'
p30
S'<built-in method __reduce_ex__ of SocketTimeout object>'
p31
sS'__new__'
p32
S'<built-in method __new__ of type object>'
p33
sS'__format__'
p34
S'<built-in method __format__ of SocketTimeout object>'
p35
sS'__class__'
p36
S"<class 'gluon.rocket.SocketTimeout'>"
p37
sS'__doc__'
p38
S"'Exception for when a socket times out between requests.'"
p39
sS'__getitem__'
p40
S"<method-wrapper '__getitem__' of SocketTimeout object>"
p41
sS'__setstate__'
p42
S'<built-in method __setstate__ of SocketTimeout object>'
p43
sS'__getattribute__'
p44
S"<method-wrapper '__getattribute__' of SocketTimeout object>"
p45
sS'args'
p46
S"('Socket timed out before request.',)"
p47
sS'__subclasshook__'
p48
S'<built-in method __subclasshook__ of type object>'
p49
sS'__unicode__'
p50
S'<built-in method __unicode__ of SocketTimeout object>'
p51
sS'__delattr__'
p52
S"<method-wrapper '__delattr__' of SocketTimeout object>"
p53
sS'__repr__'
p54
S"<method-wrapper '__repr__' of SocketTimeout object>"
p55
sS'__hash__'
p56
S"<method-wrapper '__hash__' of SocketTimeout object>"
p57
ssS'evalue'
p58
S'Socket timed out before request.'
p59
sS'frames'
p60
(lp61
(dp62
S'file'
p63
S'D:\\web2py\\gluon\\rocket.py'
p64
sS'dump'
p65
(dp66
S'self'
p67
S'<WSGIWorker(Thread-21, started daemon 6776)>'
p68
sS'conn'
p69
S'<gluon.rocket.Connection object>'
p70
sS'self.run_app'
p71
S'<bound method WSGIWorker.run_app of <WSGIWorker(Thread-21, started daemon 6776)>>'
p72
ssS'lnum'
p73
I1337
sS'lines'
p74
(dp75
I1332
S'            # Enter connection serve loop'
p76
sI1333
S'            while True:'
p77
sI1334
S'                if __debug__:'
p78
sI1335
S"                    self.err_log.debug('Serving a request')"
p79
sI1336
S'                try:'
p80
sI1337
S'                    self.run_app(conn)'
p81
sI1338
S'                except:'
p82
sI1339
S'                    exc = sys.exc_info()'
p83
sI1340
S'                    handled = self._handleError(*exc)'
p84
sI1341
S'                    if handled:'
p85
ssS'call'
p86
S'(self=<WSGIWorker(Thread-21, started daemon 6776)>)'
p87
sS'func'
p88
S'run'
p89
sa(dp90
g63
S'D:\\web2py\\gluon\\rocket.py'
p91
sg65
(dp92
S'self'
p93
S'<WSGIWorker(Thread-21, started daemon 6776)>'
p94
sS'self.environ'
p95
S"{'HTTP_ACCEPT': 'text/html,application/xhtml+xml,application/xml;q=0.9,image/webp,*/*;q=0.8', 'HTTP_ACCEPT_ENCODING': 'gzip, deflate, sdch', 'HTTP_ACCEPT_LANGUAGE': 'es-ES,es;q=0.8', 'HTTP_CACHE_CONTROL': 'max-age=0', 'HTTP_CONNECTION': 'keep-alive', 'HTTP_COOKIE': 'session_id_brainchaco=192.168.0.17-1139c9d1-fb64...192.168.0.17-8fa68f58-a919-4b7b-926f-0123706047cf', 'HTTP_HOST': '192.168.0.17:8000', 'HTTP_UPGRADE_INSECURE_REQUESTS': '1', 'HTTP_USER_AGENT': 'Mozilla/5.0 (Windows NT 6.1; WOW64) AppleWebKit/...L, like Gecko) Chrome/51.0.2704.103 Safari/537.36', 'PATH_INFO': '/BC/JugadorController/ranking', ...}"
p96
sS'sock_file'
p97
S'<socket._fileobject object>'
p98
sS'environ'
p99
S'undefined'
p100
sS'self.build_environ'
p101
S'<bound method WSGIWorker.build_environ of <WSGIWorker(Thread-21, started daemon 6776)>>'
p102
sS'conn'
p103
S'<gluon.rocket.Connection object>'
p104
ssg73
I1830
sg74
(dp105
I1825
S'        else:'
p106
sI1826
S'            sock_file = conn.makefile(BUF_SIZE)'
p107
sI1827
S''
sI1828
S'        try:'
p108
sI1829
S'            # Read the headers and build our WSGI environment'
p109
sI1830
S'            self.environ = environ = self.build_environ(sock_file, conn)'
p110
sI1831
S''
sI1832
S'            # Handle 100 Continue'
p111
sI1833
S"            if environ.get('HTTP_EXPECT', '') == '100-continue':"
p112
sI1834
S"                res = environ['SERVER_PROTOCOL'] + ' 100 Continue\\r\\n\\r\\n'"
p113
ssg86
S'(self=<WSGIWorker(Thread-21, started daemon 6776)>, conn=<gluon.rocket.Connection object>)'
p114
sg88
S'run_app'
p115
sa(dp116
g63
S'D:\\web2py\\gluon\\rocket.py'
p117
sg65
(dp118
S'sock_file'
p119
S'<socket._fileobject object>'
p120
sS'self.read_request_line'
p121
S'<bound method WSGIWorker.read_request_line of <WSGIWorker(Thread-21, started daemon 6776)>>'
p122
sS'self'
p123
S'<WSGIWorker(Thread-21, started daemon 6776)>'
p124
sS'request'
p125
g100
ssg73
I1650
sg74
(dp126
I1645
S'                                      "wsgiorg.futures": executor.futures})'
p127
sI1646
S''
sI1647
S'    def build_environ(self, sock_file, conn):'
p128
sI1648
S'        """ Build the execution environment. """'
p129
sI1649
S'        # Grab the request line'
p130
sI1650
S'        request = self.read_request_line(sock_file)'
p131
sI1651
S''
sI1652
S'        # Copy the Base Environment'
p132
sI1653
S'        environ = self.base_environ.copy()'
p133
sI1654
S''
ssg86
S'(self=<WSGIWorker(Thread-21, started daemon 6776)>, sock_file=<socket._fileobject object>, conn=<gluon.rocket.Connection object>)'
p134
sg88
S'build_environ'
p135
sa(dp136
g63
S'D:\\web2py\\gluon\\rocket.py'
p137
sg65
(dp138
S'global SocketTimeout'
p139
S"<class 'gluon.rocket.SocketTimeout'>"
p140
ssg73
I1401
sg74
(dp141
I1396
S''
sI1397
S'                d = sock_file.readline()'
p142
sI1398
S'                if PY3K:'
p143
sI1399
S"                    d = d.decode('ISO-8859-1')"
p144
sI1400
S'        except socket.timeout:'
p145
sI1401
S"            raise SocketTimeout('Socket timed out before request.')"
p146
sI1402
S'        except TypeError:'
p147
sI1403
S'            raise SocketClosed('
p148
sI1404
S"                'SSL bug caused closure of socket.  See '"
p149
sI1405
S'                \'"https://groups.google.com/d/topic/web2py/P_Gw0JxWzCs".\')'
p150
ssg86
S'(self=<WSGIWorker(Thread-21, started daemon 6776)>, sock_file=<socket._fileobject object>)'
p151
sg88
S'read_request_line'
p152
sasS'pyver'
p153
S'Python 2.7.9: D:\\web2py\\web2py.exe (prefix: )'
p154
sS'etype'
p155
S"<class 'gluon.rocket.SocketTimeout'>"
p156
sS'date'
p157
S'Sat Jul 09 01:42:50 2016'
p158
sS'locals'
p159
(dp160
S'sock_file'
p161
S'<socket._fileobject object>'
p162
sS'self'
p163
S'<WSGIWorker(Thread-21, started daemon 6776)>'
p164
sssS'traceback'
p165
S'Traceback (most recent call last):\n  File "D:\\web2py\\gluon\\rocket.py", line 1337, in run\n    self.run_app(conn)\n  File "D:\\web2py\\gluon\\rocket.py", line 1830, in run_app\n    self.environ = environ = self.build_environ(sock_file, conn)\n  File "D:\\web2py\\gluon\\rocket.py", line 1650, in build_environ\n    request = self.read_request_line(sock_file)\n  File "D:\\web2py\\gluon\\rocket.py", line 1401, in read_request_line\n    raise SocketTimeout(\'Socket timed out before request.\')\nSocketTimeout: Socket timed out before request.\n'
p166
s.